
Traffic_Light_Controller.elf:     file format elf32-littlenios2
Traffic_Light_Controller.elf
architecture: nios2:r1, flags 0x00000112:
EXEC_P, HAS_SYMS, D_PAGED
start address 0x00800244

Program Header:
    LOAD off    0x00001000 vaddr 0x00800000 paddr 0x00800000 align 2**12
         filesz 0x00000020 memsz 0x00000020 flags r-x
    LOAD off    0x00001020 vaddr 0x00800020 paddr 0x00800020 align 2**12
         filesz 0x000143b0 memsz 0x000143b0 flags r-x
    LOAD off    0x000153d0 vaddr 0x008143d0 paddr 0x008160cc align 2**12
         filesz 0x00001cfc memsz 0x00001cfc flags rw-
    LOAD off    0x00017dc8 vaddr 0x00817dc8 paddr 0x00817dc8 align 2**12
         filesz 0x00000000 memsz 0x00000220 flags rw-

Sections:
Idx Name          Size      VMA       LMA       File off  Algn
  0 .entry        00000020  00800000  00800000  00001000  2**5
                  CONTENTS, ALLOC, LOAD, READONLY, CODE
  1 .exceptions   00000224  00800020  00800020  00001020  2**2
                  CONTENTS, ALLOC, LOAD, READONLY, CODE
  2 .text         00013a30  00800244  00800244  00001244  2**2
                  CONTENTS, ALLOC, LOAD, READONLY, CODE
  3 .rodata       0000075c  00813c74  00813c74  00014c74  2**2
                  CONTENTS, ALLOC, LOAD, READONLY, DATA
  4 .rwdata       00001cfc  008143d0  008160cc  000153d0  2**2
                  CONTENTS, ALLOC, LOAD, DATA, SMALL_DATA
  5 .bss          00000220  00817dc8  00817dc8  00017dc8  2**2
                  ALLOC, SMALL_DATA
  6 .sdram        00000000  00817fe8  00817fe8  000170cc  2**0
                  CONTENTS
  7 .onchip_mem   00000000  01080000  01080000  000170cc  2**0
                  CONTENTS
  8 .comment      00000023  00000000  00000000  000170cc  2**0
                  CONTENTS, READONLY
  9 .debug_aranges 00001258  00000000  00000000  000170f0  2**3
                  CONTENTS, READONLY, DEBUGGING
 10 .debug_info   0002fa0e  00000000  00000000  00018348  2**0
                  CONTENTS, READONLY, DEBUGGING
 11 .debug_abbrev 0000bf37  00000000  00000000  00047d56  2**0
                  CONTENTS, READONLY, DEBUGGING
 12 .debug_line   0000e7be  00000000  00000000  00053c8d  2**0
                  CONTENTS, READONLY, DEBUGGING
 13 .debug_frame  00002b50  00000000  00000000  0006244c  2**2
                  CONTENTS, READONLY, DEBUGGING
 14 .debug_str    00004698  00000000  00000000  00064f9c  2**0
                  CONTENTS, READONLY, DEBUGGING
 15 .debug_loc    00019174  00000000  00000000  00069634  2**0
                  CONTENTS, READONLY, DEBUGGING
 16 .debug_alt_sim_info 00000060  00000000  00000000  000827a8  2**2
                  CONTENTS, READONLY, DEBUGGING
 17 .debug_ranges 00001b00  00000000  00000000  00082808  2**3
                  CONTENTS, READONLY, DEBUGGING
 18 .thread_model 00000003  00000000  00000000  00088291  2**0
                  CONTENTS, READONLY
 19 .cpu          00000003  00000000  00000000  00088294  2**0
                  CONTENTS, READONLY
 20 .qsys         00000001  00000000  00000000  00088297  2**0
                  CONTENTS, READONLY
 21 .simulation_enabled 00000001  00000000  00000000  00088298  2**0
                  CONTENTS, READONLY
 22 .sysid_hash   00000004  00000000  00000000  00088299  2**0
                  CONTENTS, READONLY
 23 .sysid_base   00000004  00000000  00000000  0008829d  2**0
                  CONTENTS, READONLY
 24 .sysid_time   00000004  00000000  00000000  000882a1  2**0
                  CONTENTS, READONLY
 25 .stderr_dev   00000009  00000000  00000000  000882a5  2**0
                  CONTENTS, READONLY
 26 .stdin_dev    00000009  00000000  00000000  000882ae  2**0
                  CONTENTS, READONLY
 27 .stdout_dev   00000009  00000000  00000000  000882b7  2**0
                  CONTENTS, READONLY
 28 .sopc_system_name 0000000c  00000000  00000000  000882c0  2**0
                  CONTENTS, READONLY
 29 .quartus_project_dir 00000059  00000000  00000000  000882cc  2**0
                  CONTENTS, READONLY
 30 .sopcinfo     0006b318  00000000  00000000  00088325  2**0
                  CONTENTS, READONLY
SYMBOL TABLE:
00800000 l    d  .entry	00000000 .entry
00800020 l    d  .exceptions	00000000 .exceptions
00800244 l    d  .text	00000000 .text
00813c74 l    d  .rodata	00000000 .rodata
008143d0 l    d  .rwdata	00000000 .rwdata
00817dc8 l    d  .bss	00000000 .bss
00817fe8 l    d  .sdram	00000000 .sdram
01080000 l    d  .onchip_mem	00000000 .onchip_mem
00000000 l    d  .comment	00000000 .comment
00000000 l    d  .debug_aranges	00000000 .debug_aranges
00000000 l    d  .debug_info	00000000 .debug_info
00000000 l    d  .debug_abbrev	00000000 .debug_abbrev
00000000 l    d  .debug_line	00000000 .debug_line
00000000 l    d  .debug_frame	00000000 .debug_frame
00000000 l    d  .debug_str	00000000 .debug_str
00000000 l    d  .debug_loc	00000000 .debug_loc
00000000 l    d  .debug_alt_sim_info	00000000 .debug_alt_sim_info
00000000 l    d  .debug_ranges	00000000 .debug_ranges
00000000 l    df *ABS*	00000000 ../Traffic_Light_Controller_bsp//obj/HAL/src/crt0.o
0080028c l       .text	00000000 alt_after_alt_main
00000000 l    df *ABS*	00000000 alt_irq_handler.c
00000000 l    df *ABS*	00000000 alt_instruction_exception_entry.c
00000000 l    df *ABS*	00000000 hello_world.c
00000000 l    df *ABS*	00000000 fgetc.c
00000000 l    df *ABS*	00000000 findfp.c
008021c8 l     F .text	00000008 __fp_unlock
008021dc l     F .text	0000019c __sinit.part.1
00802378 l     F .text	00000008 __fp_lock
00000000 l    df *ABS*	00000000 fopen.c
00000000 l    df *ABS*	00000000 fprintf.c
00000000 l    df *ABS*	00000000 fputc.c
00000000 l    df *ABS*	00000000 fseek.c
00000000 l    df *ABS*	00000000 fseeko.c
00000000 l    df *ABS*	00000000 fstatr.c
00000000 l    df *ABS*	00000000 fwalk.c
00000000 l    df *ABS*	00000000 fwrite.c
00000000 l    df *ABS*	00000000 impure.c
008143d0 l     O .rwdata	00000424 impure_data
00000000 l    df *ABS*	00000000 int_errno.c
00000000 l    df *ABS*	00000000 makebuf.c
00000000 l    df *ABS*	00000000 malloc.c
00000000 l    df *ABS*	00000000 mallocr.c
00000000 l    df *ABS*	00000000 memset.c
00000000 l    df *ABS*	00000000 openr.c
00000000 l    df *ABS*	00000000 printf.c
00000000 l    df *ABS*	00000000 putc.c
00000000 l    df *ABS*	00000000 putchar.c
00000000 l    df *ABS*	00000000 refill.c
00803c30 l     F .text	0000001c lflush
00000000 l    df *ABS*	00000000 rget.c
00000000 l    df *ABS*	00000000 sbrkr.c
00000000 l    df *ABS*	00000000 stdio.c
00000000 l    df *ABS*	00000000 strtok.c
00000000 l    df *ABS*	00000000 strtok_r.c
00000000 l    df *ABS*	00000000 strtol.c
00000000 l    df *ABS*	00000000 vfprintf.c
00813e8a l     O .rodata	00000010 zeroes.4404
0080655c l     F .text	000000bc __sbprintf
00813e9a l     O .rodata	00000010 blanks.4403
00000000 l    df *ABS*	00000000 wbuf.c
00000000 l    df *ABS*	00000000 writer.c
00000000 l    df *ABS*	00000000 wsetup.c
00000000 l    df *ABS*	00000000 closer.c
00000000 l    df *ABS*	00000000 ctype_.c
00813fab l     O .rodata	00000180 _ctype_b
00000000 l    df *ABS*	00000000 dtoa.c
00806978 l     F .text	00000200 quorem
00000000 l    df *ABS*	00000000 fclose.c
00000000 l    df *ABS*	00000000 fflush.c
00000000 l    df *ABS*	00000000 flags.c
00000000 l    df *ABS*	00000000 mallocr.c
00000000 l    df *ABS*	00000000 fvwrite.c
00000000 l    df *ABS*	00000000 isattyr.c
00000000 l    df *ABS*	00000000 locale.c
00814c1c l     O .rwdata	00000020 lc_ctype_charset
00814bfc l     O .rwdata	00000020 lc_message_charset
00814c3c l     O .rwdata	00000038 lconv
00000000 l    df *ABS*	00000000 lseekr.c
00000000 l    df *ABS*	00000000 memchr.c
00000000 l    df *ABS*	00000000 memcpy.c
00000000 l    df *ABS*	00000000 memmove.c
00000000 l    df *ABS*	00000000 mprec.c
00814148 l     O .rodata	0000000c p05.2768
00000000 l    df *ABS*	00000000 readr.c
00000000 l    df *ABS*	00000000 mallocr.c
00000000 l    df *ABS*	00000000 s_fpclassify.c
00000000 l    df *ABS*	00000000 strcmp.c
00000000 l    df *ABS*	00000000 strlen.c
00000000 l    df *ABS*	00000000 vfprintf.c
0080ac08 l     F .text	000000fc __sprint_r.part.0
0081427c l     O .rodata	00000010 blanks.4348
0081426c l     O .rodata	00000010 zeroes.4349
0080c194 l     F .text	000000bc __sbprintf
00000000 l    df *ABS*	00000000 mallocr.c
00000000 l    df *ABS*	00000000 fputwc.c
00000000 l    df *ABS*	00000000 wcrtomb.c
00000000 l    df *ABS*	00000000 wctomb_r.c
00000000 l    df *ABS*	00000000 libgcc2.c
00000000 l    df *ABS*	00000000 libgcc2.c
00000000 l    df *ABS*	00000000 lib2-divmod.c
00000000 l    df *ABS*	00000000 adddf3.c
00000000 l    df *ABS*	00000000 divdf3.c
00000000 l    df *ABS*	00000000 eqdf2.c
00000000 l    df *ABS*	00000000 gedf2.c
00000000 l    df *ABS*	00000000 ledf2.c
00000000 l    df *ABS*	00000000 muldf3.c
00000000 l    df *ABS*	00000000 subdf3.c
00000000 l    df *ABS*	00000000 fixdfsi.c
00000000 l    df *ABS*	00000000 floatsidf.c
00000000 l    df *ABS*	00000000 floatunsidf.c
00000000 l    df *ABS*	00000000 libgcc2.c
00000000 l    df *ABS*	00000000 libgcc2.c
00000000 l    df *ABS*	00000000 alt_alarm_start.c
00000000 l    df *ABS*	00000000 alt_close.c
0080fafc l     F .text	0000003c alt_get_errno
00000000 l    df *ABS*	00000000 alt_dev.c
0080fc08 l     F .text	0000002c alt_dev_null_write
00000000 l    df *ABS*	00000000 alt_errno.c
00000000 l    df *ABS*	00000000 alt_fstat.c
0080fc34 l     F .text	0000003c alt_get_errno
00000000 l    df *ABS*	00000000 alt_irq_register.c
00000000 l    df *ABS*	00000000 alt_irq_vars.c
00000000 l    df *ABS*	00000000 alt_isatty.c
0080fea0 l     F .text	0000003c alt_get_errno
00000000 l    df *ABS*	00000000 alt_load.c
0080ff80 l     F .text	00000068 alt_load_section
00000000 l    df *ABS*	00000000 alt_lseek.c
0081006c l     F .text	0000003c alt_get_errno
00000000 l    df *ABS*	00000000 alt_main.c
00000000 l    df *ABS*	00000000 alt_malloc_lock.c
00000000 l    df *ABS*	00000000 alt_open.c
00810240 l     F .text	0000003c alt_get_errno
0081027c l     F .text	000000c4 alt_file_locked
00000000 l    df *ABS*	00000000 alt_read.c
00810494 l     F .text	0000003c alt_get_errno
00000000 l    df *ABS*	00000000 alt_release_fd.c
00000000 l    df *ABS*	00000000 alt_sbrk.c
008160bc l     O .rwdata	00000004 heap_end
00000000 l    df *ABS*	00000000 alt_tick.c
00000000 l    df *ABS*	00000000 alt_write.c
00810884 l     F .text	0000003c alt_get_errno
00000000 l    df *ABS*	00000000 alt_sys_init.c
008109b8 l     F .text	00000034 alt_dev_reg
00814e1c l     O .rwdata	00001060 jtag_uart
00815e7c l     O .rwdata	00000120 lcd
00815f9c l     O .rwdata	000000c4 uart
00000000 l    df *ABS*	00000000 altera_avalon_jtag_uart_fd.c
00000000 l    df *ABS*	00000000 altera_avalon_jtag_uart_init.c
00810ce4 l     F .text	0000020c altera_avalon_jtag_uart_irq
00810ef0 l     F .text	000000a0 altera_avalon_jtag_uart_timeout
00000000 l    df *ABS*	00000000 altera_avalon_jtag_uart_ioctl.c
00000000 l    df *ABS*	00000000 altera_avalon_jtag_uart_read.c
00000000 l    df *ABS*	00000000 altera_avalon_jtag_uart_write.c
00000000 l    df *ABS*	00000000 altera_avalon_lcd_16207.c
008160c8 l     O .rwdata	00000004 colstart
00811528 l     F .text	000000b8 lcd_write_command
008115e0 l     F .text	000000d8 lcd_write_data
008116b8 l     F .text	000000d0 lcd_clear_screen
00811788 l     F .text	000001ec lcd_repaint_screen
00811974 l     F .text	000000cc lcd_scroll_up
00811a40 l     F .text	000002ac lcd_handle_escape
008121c4 l     F .text	000000ac alt_lcd_16207_timeout
00000000 l    df *ABS*	00000000 altera_avalon_lcd_16207_fd.c
00000000 l    df *ABS*	00000000 altera_avalon_timer_sc.c
00812404 l     F .text	00000078 alt_avalon_timer_sc_irq
00000000 l    df *ABS*	00000000 altera_avalon_uart_fd.c
00000000 l    df *ABS*	00000000 altera_avalon_uart_init.c
008126b4 l     F .text	0000009c altera_avalon_uart_irq
00812750 l     F .text	000000e4 altera_avalon_uart_rxirq
00812834 l     F .text	00000148 altera_avalon_uart_txirq
00000000 l    df *ABS*	00000000 altera_avalon_uart_read.c
008129d0 l     F .text	0000003c alt_get_errno
00000000 l    df *ABS*	00000000 altera_avalon_uart_write.c
00812be8 l     F .text	0000003c alt_get_errno
00000000 l    df *ABS*	00000000 alt_dcache_flush_all.c
00000000 l    df *ABS*	00000000 alt_dev_llist_insert.c
00812e18 l     F .text	0000003c alt_get_errno
00000000 l    df *ABS*	00000000 alt_do_ctors.c
00000000 l    df *ABS*	00000000 alt_do_dtors.c
00000000 l    df *ABS*	00000000 alt_find_dev.c
00000000 l    df *ABS*	00000000 alt_find_file.c
00000000 l    df *ABS*	00000000 alt_get_fd.c
00000000 l    df *ABS*	00000000 alt_icache_flush_all.c
00000000 l    df *ABS*	00000000 alt_iic.c
00000000 l    df *ABS*	00000000 alt_iic_isr_register.c
00000000 l    df *ABS*	00000000 alt_io_redirect.c
008134c8 l     F .text	000000c4 alt_open_fd
00000000 l    df *ABS*	00000000 alt_usleep.c
00000000 l    df *ABS*	00000000 altera_nios2_gen2_irq.c
00000000 l    df *ABS*	00000000 alt_busy_sleep.c
00000000 l    df *ABS*	00000000 alt_icache_flush.c
00000000 l    df *ABS*	00000000 atexit.c
00000000 l    df *ABS*	00000000 exit.c
00000000 l    df *ABS*	00000000 memcmp.c
00000000 l    df *ABS*	00000000 __atexit.c
00000000 l    df *ABS*	00000000 __call_atexit.c
00000000 l    df *ABS*	00000000 alt_exit.c
00817e40 g     O .bss	00000004 alt_instruction_exception_handler
00803c18 g     F .text	00000018 putchar
0080a2e4 g     F .text	00000074 _mprec_log10
00800d0c g     F .text	00000080 lcd_set_mode
0080a3d0 g     F .text	0000008c __any_on
00808f48 g     F .text	00000054 _isatty_r
00814154 g     O .rodata	00000028 __mprec_tinytens
00817dec g     O .bss	00000004 current_state4
0081017c g     F .text	0000007c alt_main
00817dfc g     O .bss	00000004 vehicle_cross
00817ee8 g     O .bss	00000100 alt_irq
00809078 g     F .text	00000060 _lseek_r
00816074 g     O .rwdata	00000004 t3
008160cc g       *ABS*	00000000 __flash_rwdata_start
008085ac g     F .text	000000ac __sflags
0080e4fc g     F .text	00000088 .hidden __eqdf2
00817df8 g     O .bss	00000004 pedEW
00817fe8 g       *ABS*	00000000 __alt_heap_start
008040ec g     F .text	00000008 strtok_r
00803a6c g     F .text	0000003c printf
0080c51c g     F .text	0000009c _wcrtomb_r
00803fd4 g     F .text	0000005c __sseek
00802518 g     F .text	00000010 __sinit
00806618 g     F .text	00000140 __swbuf_r
00817dd8 g     O .bss	00000004 previous_state1
00817e04 g     O .bss	00000004 lcd
00808f9c g     F .text	0000007c _setlocale_r
00802380 g     F .text	00000068 __sfmoreglue
0081021c g     F .text	00000024 __malloc_unlock
00809304 g     F .text	0000015c memmove
00802500 g     F .text	00000018 _cleanup
00809460 g     F .text	000000a8 _Balloc
00804050 g     F .text	0000009c __strtok_r
0080e584 g     F .text	000000dc .hidden __gtdf2
00813638 g     F .text	00000024 altera_nios2_gen2_irq_init
00800000 g     F .entry	0000001c __reset
00800020 g       *ABS*	00000000 __flash_exceptions_start
0081607c g     O .rwdata	00000004 t5
00802be0 g     F .text	0000005c _fstat_r
00817e0c g     O .bss	00000004 errno
00803e94 g     F .text	00000014 __srget
00816064 g     O .rwdata	00000004 mode_display
00803f50 g     F .text	00000008 __seofread
00817e30 g     O .bss	00000004 alt_argv
0081e060 g       *ABS*	00000000 _gp
00813608 g     F .text	00000030 usleep
00814c9c g     O .rwdata	00000180 alt_fd_list
00803c10 g     F .text	00000008 _putchar_r
00812fb8 g     F .text	00000090 alt_find_dev
008091bc g     F .text	00000148 memcpy
00800a84 g     F .text	0000004c camera_timer_isr
008003a0 g     F .text	00000254 pedestrian_tlc_timer_isr
008021d0 g     F .text	0000000c _cleanup_r
0080f7e8 g     F .text	000000dc .hidden __floatsidf
0081358c g     F .text	0000007c alt_io_redirect
0080e660 g     F .text	000000f4 .hidden __ltdf2
00817df4 g     O .bss	00000004 pedNS
00813c74 g       *ABS*	00000000 __DTOR_END__
00800ad0 g     F .text	00000030 vehicle_timer_isr
00813844 g     F .text	0000009c alt_exception_cause_generated_bad_addr
0080aa20 g     F .text	00000074 __fpclassifyd
0080a240 g     F .text	000000a4 __ratio
0080c178 g     F .text	0000001c __vfiprintf_internal
00800f78 g     F .text	00000284 pedestrian_tlc
008110e8 g     F .text	0000021c altera_avalon_jtag_uart_read
00803080 g     F .text	00000014 malloc
00803a3c g     F .text	00000030 _printf_r
0080d2ac g     F .text	00000064 .hidden __udivsi3
0080fedc g     F .text	000000a4 isatty
008141a4 g     O .rodata	000000c8 __mprec_tens
00809018 g     F .text	0000000c __locale_charset
008137b4 g     F .text	00000090 alt_icache_flush
00817e18 g     O .bss	00000004 __malloc_top_pad
00816098 g     O .rwdata	00000004 __mb_cur_max
00809048 g     F .text	0000000c _localeconv_r
0080986c g     F .text	0000003c __i2b
00808a8c g     F .text	000004bc __sfvwrite_r
00816060 g     O .rwdata	00000004 current_mode
00803ea8 g     F .text	00000054 _sbrk_r
008011fc g     F .text	0000062c configurable_tlc
0080a45c g     F .text	00000060 _read_r
008160b0 g     O .rwdata	00000004 alt_max_fd
00808200 g     F .text	000000f0 _fclose_r
00816070 g     O .rwdata	00000004 t2
0080857c g     F .text	00000030 fflush
00817e14 g     O .bss	00000004 __malloc_max_sbrked_mem
0080fd20 g     F .text	00000180 alt_irq_register
008020d0 g     F .text	00000070 _fgetc_r
0080d368 g     F .text	000008ac .hidden __adddf3
00809fe8 g     F .text	0000010c __b2d
0080cc7c g     F .text	00000538 .hidden __umoddi3
008100a8 g     F .text	000000d4 lseek
00816084 g     O .rwdata	00000004 _global_impure_ptr
0080a4bc g     F .text	00000564 _realloc_r
00817fe8 g       *ABS*	00000000 __bss_end
008133d8 g     F .text	000000f0 alt_iic_isr_register
0081077c g     F .text	00000108 alt_tick
0080c704 g     F .text	00000578 .hidden __udivdi3
0080c478 g     F .text	00000024 _fputwc_r
0081417c g     O .rodata	00000028 __mprec_bigtens
00809650 g     F .text	00000104 __s2b
0080f8c4 g     F .text	000000a8 .hidden __floatunsidf
00809d28 g     F .text	00000060 __mcmp
00812608 g     F .text	000000ac altera_avalon_uart_init
00802538 g     F .text	00000018 __fp_lock_all
0081338c g     F .text	0000004c alt_ic_irq_enabled
008106e0 g     F .text	0000009c alt_alarm_stop
00801828 g     F .text	0000062c camera_tlc
0080432c g     F .text	0000001c strtol
00817e28 g     O .bss	00000004 alt_irq_active
00802780 g     F .text	00000444 _fseeko_r
01080000 g       *ABS*	00000000 __alt_mem_onchip_mem
008000fc g     F .exceptions	000000d4 alt_irq_handler
00814c74 g     O .rwdata	00000028 alt_dev_null
00817e6c g     O .bss	00000018 timer_simple
00812dd0 g     F .text	00000048 alt_dcache_flush_all
00809754 g     F .text	00000068 __hi0bits
0080f768 g     F .text	00000080 .hidden __fixdfsi
00816078 g     O .rwdata	00000004 t4
008160cc g       *ABS*	00000000 __ram_rwdata_end
008160a8 g     O .rwdata	00000008 alt_dev_list
008026c0 g     F .text	00000044 _fputc_r
008108c0 g     F .text	000000f8 write
00803aa8 g     F .text	000000a0 _putc_r
008143d0 g       *ABS*	00000000 __ram_rodata_end
0080fc70 g     F .text	000000b0 fstat
0080269c g     F .text	00000024 fprintf
0080e660 g     F .text	000000f4 .hidden __ledf2
00809aa0 g     F .text	00000140 __pow5mult
0080ad1c g     F .text	0000145c ___vfiprintf_internal_r
00817e24 g     O .bss	00000004 __nlocale_changed
0080d310 g     F .text	00000058 .hidden __umodsi3
00817fe8 g       *ABS*	00000000 end
00811cec g     F .text	000004d8 altera_avalon_lcd_16207_write
00802bc4 g     F .text	0000001c fseeko
00812c24 g     F .text	000001ac altera_avalon_uart_write
00802764 g     F .text	0000001c fseek
00810c24 g     F .text	000000c0 altera_avalon_jtag_uart_init
008001d0 g     F .exceptions	00000074 alt_instruction_exception_entry
00813c74 g       *ABS*	00000000 __CTOR_LIST__
01000000 g       *ABS*	00000000 __alt_stack_pointer
0081247c g     F .text	0000007c alt_avalon_timer_sc_init
00812558 g     F .text	00000060 altera_avalon_uart_write_fd
0080f96c g     F .text	00000064 .hidden __clzsi2
008125b8 g     F .text	00000050 altera_avalon_uart_close_fd
00811304 g     F .text	00000224 altera_avalon_jtag_uart_write
00802528 g     F .text	00000004 __sfp_lock_acquire
008090d8 g     F .text	000000e4 memchr
00804348 g     F .text	000021f8 ___vfprintf_internal_r
0080877c g     F .text	00000310 _free_r
00809024 g     F .text	00000010 __locale_mb_cur_max
00813ac0 g     F .text	00000180 __call_exitprocs
00803e20 g     F .text	00000074 __srget_r
00817de8 g     O .bss	00000004 previous_state3
00817e20 g     O .bss	00000004 __mlocale_changed
0081608c g     O .rwdata	00000004 __malloc_sbrk_base
00800244 g     F .text	0000004c _start
00817e38 g     O .bss	00000004 _alt_tick_rate
008005f4 g     F .text	00000248 configurable_tlc_timer_isr
00809be0 g     F .text	00000148 __lshift
00817e3c g     O .bss	00000004 _alt_nticks
008104d0 g     F .text	000000fc read
00810a24 g     F .text	0000009c alt_sys_init
008039dc g     F .text	00000060 _open_r
008139a8 g     F .text	00000118 __register_exitproc
008098a8 g     F .text	000001f8 __multiply
00810f90 g     F .text	00000068 altera_avalon_jtag_uart_close
00817e84 g     O .bss	00000018 timer_vehicle
008143d0 g       *ABS*	00000000 __ram_rwdata_start
00813c74 g       *ABS*	00000000 __ram_rodata_start
00817e44 g     O .bss	00000028 __malloc_current_mallinfo
0080a0f4 g     F .text	0000014c __d2b
00817ddc g     O .bss	00000004 current_state2
00817dcc g     O .bss	00000004 camera_timer_has_started
00816068 g     O .rwdata	00000002 comma
00810ac0 g     F .text	00000060 altera_avalon_jtag_uart_read_fd
00813150 g     F .text	000000a4 alt_get_fd
0081365c g     F .text	00000158 alt_busy_sleep
00806924 g     F .text	00000054 _close_r
00804038 g     F .text	00000018 strtok
0081392c g     F .text	0000007c memcmp
00810b80 g     F .text	00000050 altera_avalon_jtag_uart_close_fd
00817fe8 g       *ABS*	00000000 __alt_stack_base
00810bd0 g     F .text	00000054 altera_avalon_jtag_uart_ioctl_fd
00802dc4 g     F .text	000000cc _fwrite_r
008067d0 g     F .text	00000154 __swsetup_r
0080dc14 g     F .text	000008e8 .hidden __divdf3
008023e8 g     F .text	00000118 __sfp
0080a358 g     F .text	00000078 __copybits
008147f4 g     O .rwdata	00000408 __malloc_av_
00802534 g     F .text	00000004 __sinit_lock_release
0080e754 g     F .text	00000718 .hidden __muldf3
00803efc g     F .text	00000054 __sread
00813048 g     F .text	00000108 alt_find_file
00812e54 g     F .text	000000a4 alt_dev_llist_insert
008101f8 g     F .text	00000024 __malloc_lock
00802674 g     F .text	00000028 _fprintf_r
00810630 g     F .text	000000b0 sbrk
00808520 g     F .text	0000005c _fflush_r
0080c250 g     F .text	000000c4 _calloc_r
0081606c g     O .rwdata	00000004 t1
0080265c g     F .text	00000018 fopen
00817dc8 g       *ABS*	00000000 __bss_start
008038b4 g     F .text	00000128 memset
00801e54 g     F .text	0000027c main
00817e34 g     O .bss	00000004 alt_envp
00817e10 g     O .bss	00000004 __malloc_max_total_mem
00810b20 g     F .text	00000060 altera_avalon_jtag_uart_write_fd
00806758 g     F .text	00000018 __swbuf
00812270 g     F .text	00000134 altera_avalon_lcd_16207_init
00804030 g     F .text	00000008 __sclose
01000000 g       *ABS*	00000000 __alt_heap_limit
008082f0 g     F .text	00000014 fclose
008040f4 g     F .text	00000238 _strtol_r
00806b78 g     F .text	00001688 _dtoa_r
008030a8 g     F .text	0000080c _malloc_r
00817dc8 g     O .bss	00000004 timer_has_started
0080c678 g     F .text	00000030 __ascii_wctomb
008160b4 g     O .rwdata	00000004 alt_errno
00802c3c g     F .text	000000c4 _fwalk
00817de4 g     O .bss	00000004 current_state3
0080083c g     F .text	00000248 camera_tlc_timer_isr
00803b48 g     F .text	000000c8 putc
0080d1b4 g     F .text	00000084 .hidden __divsi3
00808658 g     F .text	00000124 _malloc_trim_r
00813c74 g       *ABS*	00000000 __CTOR_END__
0080aa94 g     F .text	000000dc strcmp
00813c74 g       *ABS*	00000000 __flash_rodata_start
00813c74 g       *ABS*	00000000 __DTOR_LIST__
00817e00 g     O .bss	00000004 count
00817dd0 g     O .bss	00000004 mode_request
0080e4fc g     F .text	00000088 .hidden __nedf2
008109ec g     F .text	00000038 alt_irq_init
008105cc g     F .text	00000064 alt_release_fd
00802140 g     F .text	00000088 fgetc
0081428c g     O .rodata	00000100 .hidden __clz_tab
00817e1c g     O .bss	00000004 _PathLocale
008138e0 g     F .text	00000014 atexit
00806770 g     F .text	00000060 _write_r
00809054 g     F .text	00000018 setlocale
00816088 g     O .rwdata	00000004 _impure_ptr
00817e2c g     O .bss	00000004 alt_argc
00808304 g     F .text	0000021c __sflush_r
00812f58 g     F .text	00000060 _do_dtors
00809040 g     F .text	00000008 __locale_cjk_lang
00802760 g     F .text	00000004 _fseek_r
00803c4c g     F .text	000001d4 __srefill_r
00800020 g       .exceptions	00000000 alt_irq_entry
00809f84 g     F .text	00000064 __ulp
00802550 g     F .text	00000018 __fp_unlock_all
008123a4 g     F .text	00000060 altera_avalon_lcd_16207_write_fd
00802704 g     F .text	0000005c fputc
008160a0 g     O .rwdata	00000008 alt_fs_list
00817df0 g     O .bss	00000004 previous_state4
00800290 g     F .text	00000080 reset_volatiles
00800020 g       *ABS*	00000000 __ram_exceptions_start
0080906c g     F .text	0000000c localeconv
00816080 g     O .rwdata	00000004 t6
00813228 g     F .text	00000050 alt_ic_isr_register
00802e90 g     F .text	00000034 fwrite
008160cc g       *ABS*	00000000 _edata
008124f8 g     F .text	00000060 altera_avalon_uart_read_fd
00800b00 g     F .text	0000020c button_interrupt
00817fe8 g       *ABS*	00000000 _end
00817e9c g     O .bss	00000018 timer_camera
00800310 g     F .text	00000090 simple_tlc_timer_isr
0080c314 g     F .text	00000164 __fputwc
00800244 g       *ABS*	00000000 __ram_exceptions_end
00810ff8 g     F .text	000000f0 altera_avalon_jtag_uart_ioctl
00813300 g     F .text	0000008c alt_ic_irq_disable
00803f58 g     F .text	0000007c __swrite
00816090 g     O .rwdata	00000004 __malloc_trim_threshold
00809034 g     F .text	0000000c __locale_msgcharset
008138f4 g     F .text	00000038 exit
00802d00 g     F .text	000000c4 _fwalk_reent
00809d88 g     F .text	000001fc __mdiff
00800d8c g     F .text	000001ec simple_tlc
0080d238 g     F .text	00000074 .hidden __modsi3
00816094 g     O .rwdata	00000004 __ctype_ptr__
01000000 g       *ABS*	00000000 __alt_data_end
00800020 g     F .exceptions	00000000 alt_exception
00817e08 g     O .bss	00000004 uart
0080252c g     F .text	00000004 __sfp_lock_release
00800000 g       *ABS*	00000000 __alt_mem_sdram
00813eaa g     O .rodata	00000101 _ctype_
0081297c g     F .text	00000054 altera_avalon_uart_close
00802568 g     F .text	000000f4 _fopen_r
00813c40 g     F .text	00000034 _exit
0080f9d0 g     F .text	0000012c alt_alarm_start
00802ec4 g     F .text	000001bc __smakebuf_r
00817eb4 g     O .bss	00000032 config_values
0080ab70 g     F .text	00000098 strlen
00810340 g     F .text	00000154 open
0080e584 g     F .text	000000dc .hidden __gedf2
00817dd4 g     O .bss	00000004 current_state1
0081609c g     O .rwdata	00000004 __wctomb
0080ad04 g     F .text	00000018 __sprint_r
008131f4 g     F .text	00000034 alt_icache_flush_all
008160b8 g     O .rwdata	00000004 alt_priority_mask
00813278 g     F .text	00000088 alt_ic_irq_enable
00806540 g     F .text	0000001c __vfprintf_internal
00812a0c g     F .text	000001dc altera_avalon_uart_read
0080c6a8 g     F .text	0000005c _wctomb_r
00817de0 g     O .bss	00000004 previous_state2
0080ee6c g     F .text	000008fc .hidden __subdf3
008097bc g     F .text	000000b0 __lo0bits
008160c0 g     O .rwdata	00000008 alt_alarm_list
00812ef8 g     F .text	00000060 _do_ctors
0080c5b8 g     F .text	000000c0 wcrtomb
0080fb38 g     F .text	000000d0 close
0080ffe8 g     F .text	00000084 alt_load
0080c49c g     F .text	00000080 fputwc
00803094 g     F .text	00000014 free
00802530 g     F .text	00000004 __sinit_lock_acquire
00809530 g     F .text	00000120 __multadd
00809508 g     F .text	00000028 _Bfree



Disassembly of section .entry:

00800000 <__reset>:
#if NIOS2_ICACHE_SIZE > 0 && defined(ALT_ALLOW_CODE_AT_RESET) && (!defined(ALT_SIM_OPTIMIZE) || defined(NIOS2_ECC_PRESENT))
    /* Assume the instruction cache size is always a power of two. */
#if NIOS2_ICACHE_SIZE > 0x8000
    movhi r2, %hi(NIOS2_ICACHE_SIZE)
#else
    movui r2, NIOS2_ICACHE_SIZE
  800000:	00840014 	movui	r2,4096
#endif

0:
    initi r2
  800004:	1001483a 	initi	r2
    addi r2, r2, -NIOS2_ICACHE_LINE_SIZE
  800008:	10bff804 	addi	r2,r2,-32
    bgt r2, zero, 0b
  80000c:	00bffd16 	blt	zero,r2,800004 <__alt_mem_onchip_mem+0xff780004>
 * Jump to the _start entry point in the .text section if reset code
 * is allowed or if optimizing for RTL simulation.
 */
#if defined(ALT_ALLOW_CODE_AT_RESET) || defined(ALT_SIM_OPTIMIZE)
    /* Jump to the _start entry point in the .text section. */
    movhi r1, %hi(_start)
  800010:	00402034 	movhi	at,128
    ori r1, r1, %lo(_start)
  800014:	08409114 	ori	at,at,580
    jmp r1
  800018:	0800683a 	jmp	at
  80001c:	00000000 	call	0 <__reset-0x800000>

Disassembly of section .exceptions:

00800020 <alt_exception>:

#else /* ALT_EXCEPTION_STACK disabled */
        /* 
         * Reserve space on normal stack for registers about to be pushed.
         */
        addi  sp, sp, -76
  800020:	deffed04 	addi	sp,sp,-76
         * documentation for details).
         *
         * Leave a gap in the stack frame at 4(sp) for the muldiv handler to
         * store zero into.
         */
        stw   ra,  0(sp)
  800024:	dfc00015 	stw	ra,0(sp)
        stw   r1,   8(sp)
  800028:	d8400215 	stw	at,8(sp)
        stw   r2,  12(sp)
  80002c:	d8800315 	stw	r2,12(sp)
        stw   r3,  16(sp)
  800030:	d8c00415 	stw	r3,16(sp)
        stw   r4,  20(sp)
  800034:	d9000515 	stw	r4,20(sp)
        stw   r5,  24(sp)
  800038:	d9400615 	stw	r5,24(sp)
        stw   r6,  28(sp)
  80003c:	d9800715 	stw	r6,28(sp)
        stw   r7,  32(sp)
  800040:	d9c00815 	stw	r7,32(sp)
        rdctl r5, estatus   /* Read early to avoid usage stall */
  800044:	000b307a 	rdctl	r5,estatus
        stw   r8,  36(sp)
  800048:	da000915 	stw	r8,36(sp)
        stw   r9,  40(sp)
  80004c:	da400a15 	stw	r9,40(sp)
        stw   r10, 44(sp)
  800050:	da800b15 	stw	r10,44(sp)
        stw   r11, 48(sp)
  800054:	dac00c15 	stw	r11,48(sp)
        stw   r12, 52(sp)
  800058:	db000d15 	stw	r12,52(sp)
        stw   r13, 56(sp)
  80005c:	db400e15 	stw	r13,56(sp)
        stw   r14, 60(sp)
  800060:	db800f15 	stw	r14,60(sp)
        stw   r15, 64(sp)
  800064:	dbc01015 	stw	r15,64(sp)
        /*
         * ea-4 contains the address of the instruction being executed
         * when the exception occured. For interrupt exceptions, we will
         * will be re-issue the isntruction. Store it in 72(sp)
         */
        stw   r5,  68(sp)  /* estatus */
  800068:	d9401115 	stw	r5,68(sp)
        addi  r15, ea, -4  /* instruction that caused exception */
  80006c:	ebffff04 	addi	r15,ea,-4
        stw   r15,  72(sp)
  800070:	dbc01215 	stw	r15,72(sp)
#else
        /*
         * Test to see if the exception was a software exception or caused 
         * by an external interrupt, and vector accordingly.
         */
        rdctl r4, ipending
  800074:	0009313a 	rdctl	r4,ipending
        andi  r2, r5, 1
  800078:	2880004c 	andi	r2,r5,1
        beq   r2, zero, .Lnot_irq
  80007c:	10000326 	beq	r2,zero,80008c <alt_exception+0x6c>
        beq   r4, zero, .Lnot_irq
  800080:	20000226 	beq	r4,zero,80008c <alt_exception+0x6c>
        /*
         * Now that all necessary registers have been preserved, call 
         * alt_irq_handler() to process the interrupts.
         */

        call alt_irq_handler
  800084:	08000fc0 	call	8000fc <alt_irq_handler>

        .section .exceptions.irqreturn, "xa"

        br    .Lexception_exit
  800088:	00000706 	br	8000a8 <alt_exception+0x88>
         * upon completion, so we write ea (address of instruction *after*
         * the one where the exception occured) into 72(sp). The actual
         * instruction that caused the exception is written in r2, which these
         * handlers will utilize.
         */
        stw ea, 72(sp) /* EA is PC+4 so will skip over instruction causing exception */
  80008c:	df401215 	stw	ea,72(sp)
.Lunknown_16bit:
        addi.n r4, r4, 2 /* Need PC+2 to skip over instruction causing exception */
        stw r4, 72(sp)

#else /* CDX is not Enabled and all instructions are 32bits */
        ldw r2, -4(ea) /* Instruction value that caused exception */
  800090:	e8bfff17 	ldw	r2,-4(ea)
         * debugger is present) or go into an infinite loop since the
         * handling behavior is undefined; in that case we will not return here.
         */

        /* Load exception-causing address as first argument (r4) */
        addi   r4, ea, -4
  800094:	e93fff04 	addi	r4,ea,-4

        /* Call the instruction-exception entry */
        call   alt_instruction_exception_entry
  800098:	08001d00 	call	8001d0 <alt_instruction_exception_entry>
         * instruction
         *
         * Return code was 0: Skip. The instruction after the exception is
         * already stored in 72(sp).
         */
        bne   r2, r0, .Lexception_exit
  80009c:	1000021e 	bne	r2,zero,8000a8 <alt_exception+0x88>

        /*
         * Otherwise, modify 72(sp) to re-issue the instruction that caused the
         * exception.
         */
        addi  r15, ea, -4  /* instruction that caused exception */
  8000a0:	ebffff04 	addi	r15,ea,-4
        stw   r15,  72(sp)
  8000a4:	dbc01215 	stw	r15,72(sp)
        /* 
         * Restore the saved registers, so that all general purpose registers 
         * have been restored to their state at the time the interrupt occured.
         */

        ldw   r5,  68(sp)
  8000a8:	d9401117 	ldw	r5,68(sp)
        ldw   ea,  72(sp)  /* This becomes the PC once eret is executed */
  8000ac:	df401217 	ldw	ea,72(sp)
        ldw   ra,   0(sp)
  8000b0:	dfc00017 	ldw	ra,0(sp)

        wrctl estatus, r5
  8000b4:	2801707a 	wrctl	estatus,r5

        ldw   r1,   8(sp)
  8000b8:	d8400217 	ldw	at,8(sp)
        ldw   r2,  12(sp)
  8000bc:	d8800317 	ldw	r2,12(sp)
        ldw   r3,  16(sp)
  8000c0:	d8c00417 	ldw	r3,16(sp)
        ldw   r4,  20(sp)
  8000c4:	d9000517 	ldw	r4,20(sp)
        ldw   r5,  24(sp)
  8000c8:	d9400617 	ldw	r5,24(sp)
        ldw   r6,  28(sp)
  8000cc:	d9800717 	ldw	r6,28(sp)
        ldw   r7,  32(sp)
  8000d0:	d9c00817 	ldw	r7,32(sp)

#if defined(ALT_EXCEPTION_STACK) && defined(ALT_STACK_CHECK)
        ldw   et, %gprel(alt_exception_old_stack_limit)(gp)
#endif

        ldw   r8,  36(sp)
  8000d4:	da000917 	ldw	r8,36(sp)
        ldw   r9,  40(sp)
  8000d8:	da400a17 	ldw	r9,40(sp)
        ldw   r10, 44(sp)
  8000dc:	da800b17 	ldw	r10,44(sp)
        ldw   r11, 48(sp)
  8000e0:	dac00c17 	ldw	r11,48(sp)
        ldw   r12, 52(sp)
  8000e4:	db000d17 	ldw	r12,52(sp)
        ldw   r13, 56(sp)
  8000e8:	db400e17 	ldw	r13,56(sp)
        ldw   r14, 60(sp)
  8000ec:	db800f17 	ldw	r14,60(sp)
        ldw   r15, 64(sp)
  8000f0:	dbc01017 	ldw	r15,64(sp)
        stw   et, %gprel(alt_stack_limit_value)(gp)
        stw   zero, %gprel(alt_exception_old_stack_limit)(gp)
#endif /* ALT_STACK_CHECK */
        ldw   sp,  76(sp)
#else /* ALT_EXCEPTION_STACK disabled */
        addi  sp, sp, 76
  8000f4:	dec01304 	addi	sp,sp,76

        /*
         * Return to the interrupted instruction.
         */

        eret
  8000f8:	ef80083a 	eret

008000fc <alt_irq_handler>:
 * instruction is present if the macro ALT_CI_INTERRUPT_VECTOR defined.
 */

void alt_irq_handler (void) __attribute__ ((section (".exceptions")));
void alt_irq_handler (void)
{
  8000fc:	defff904 	addi	sp,sp,-28
  800100:	dfc00615 	stw	ra,24(sp)
  800104:	df000515 	stw	fp,20(sp)
  800108:	df000504 	addi	fp,sp,20
  
  /*
   * Notify the operating system that we are at interrupt level.
   */ 
  
  ALT_OS_INT_ENTER();
  80010c:	0001883a 	nop
#ifndef NIOS2_EIC_PRESENT
static ALT_INLINE alt_u32 ALT_ALWAYS_INLINE alt_irq_pending (void)
{
  alt_u32 active;

  NIOS2_READ_IPENDING (active);
  800110:	0005313a 	rdctl	r2,ipending
  800114:	e0bffe15 	stw	r2,-8(fp)

  return active;
  800118:	e0bffe17 	ldw	r2,-8(fp)
   * Consider the case where the high priority interupt is asserted during
   * the interrupt entry sequence for a lower priority interrupt to see why
   * this is the case.
   */

  active = alt_irq_pending ();
  80011c:	e0bffb15 	stw	r2,-20(fp)

  do
  {
    i = 0;
  800120:	e03ffd15 	stw	zero,-12(fp)
    mask = 1;
  800124:	00800044 	movi	r2,1
  800128:	e0bffc15 	stw	r2,-16(fp)
     * called to clear the interrupt condition.
     */

    do
    {
      if (active & mask)
  80012c:	e0fffb17 	ldw	r3,-20(fp)
  800130:	e0bffc17 	ldw	r2,-16(fp)
  800134:	1884703a 	and	r2,r3,r2
  800138:	10001426 	beq	r2,zero,80018c <alt_irq_handler+0x90>
      { 
#ifdef ALT_ENHANCED_INTERRUPT_API_PRESENT
        alt_irq[i].handler(alt_irq[i].context); 
  80013c:	00802074 	movhi	r2,129
  800140:	109fba04 	addi	r2,r2,32488
  800144:	e0fffd17 	ldw	r3,-12(fp)
  800148:	180690fa 	slli	r3,r3,3
  80014c:	10c5883a 	add	r2,r2,r3
  800150:	10c00017 	ldw	r3,0(r2)
  800154:	00802074 	movhi	r2,129
  800158:	109fba04 	addi	r2,r2,32488
  80015c:	e13ffd17 	ldw	r4,-12(fp)
  800160:	200890fa 	slli	r4,r4,3
  800164:	1105883a 	add	r2,r2,r4
  800168:	10800104 	addi	r2,r2,4
  80016c:	10800017 	ldw	r2,0(r2)
  800170:	1009883a 	mov	r4,r2
  800174:	183ee83a 	callr	r3
#else
        alt_irq[i].handler(alt_irq[i].context, i); 
#endif
        break;
  800178:	0001883a 	nop
#ifndef NIOS2_EIC_PRESENT
static ALT_INLINE alt_u32 ALT_ALWAYS_INLINE alt_irq_pending (void)
{
  alt_u32 active;

  NIOS2_READ_IPENDING (active);
  80017c:	0005313a 	rdctl	r2,ipending
  800180:	e0bfff15 	stw	r2,-4(fp)

  return active;
  800184:	e0bfff17 	ldw	r2,-4(fp)
  800188:	00000706 	br	8001a8 <alt_irq_handler+0xac>
      }
      mask <<= 1;
  80018c:	e0bffc17 	ldw	r2,-16(fp)
  800190:	1085883a 	add	r2,r2,r2
  800194:	e0bffc15 	stw	r2,-16(fp)
      i++;
  800198:	e0bffd17 	ldw	r2,-12(fp)
  80019c:	10800044 	addi	r2,r2,1
  8001a0:	e0bffd15 	stw	r2,-12(fp)

    } while (1);
  8001a4:	003fe106 	br	80012c <__alt_mem_onchip_mem+0xff78012c>

    active = alt_irq_pending ();
  8001a8:	e0bffb15 	stw	r2,-20(fp)
    
  } while (active);
  8001ac:	e0bffb17 	ldw	r2,-20(fp)
  8001b0:	103fdb1e 	bne	r2,zero,800120 <__alt_mem_onchip_mem+0xff780120>

  /*
   * Notify the operating system that interrupt processing is complete.
   */ 

  ALT_OS_INT_EXIT();
  8001b4:	0001883a 	nop
}
  8001b8:	0001883a 	nop
  8001bc:	e037883a 	mov	sp,fp
  8001c0:	dfc00117 	ldw	ra,4(sp)
  8001c4:	df000017 	ldw	fp,0(sp)
  8001c8:	dec00204 	addi	sp,sp,8
  8001cc:	f800283a 	ret

008001d0 <alt_instruction_exception_entry>:
 * that handler if it has been registered. Absent a handler, it will
 * break break or hang as discussed below.
 */
int 
alt_instruction_exception_entry (alt_u32 exception_pc)
{
  8001d0:	defffb04 	addi	sp,sp,-20
  8001d4:	dfc00415 	stw	ra,16(sp)
  8001d8:	df000315 	stw	fp,12(sp)
  8001dc:	df000304 	addi	fp,sp,12
  8001e0:	e13fff15 	stw	r4,-4(fp)
 * NIOS2_EXCEPTION_CAUSE_NOT_PRESENT. Your handling routine should
 * check the validity of the cause argument before proceeding.
 */
#ifdef NIOS2_HAS_EXTRA_EXCEPTION_INFO
  /* Get exception cause & "badaddr" */
  NIOS2_READ_EXCEPTION(cause);
  8001e4:	000531fa 	rdctl	r2,exception
  8001e8:	e0bffd15 	stw	r2,-12(fp)
  cause = ( (cause & NIOS2_EXCEPTION_REG_CAUSE_MASK) >>
  8001ec:	e0bffd17 	ldw	r2,-12(fp)
  8001f0:	10801f0c 	andi	r2,r2,124
  8001f4:	1004d0ba 	srli	r2,r2,2
  8001f8:	e0bffd15 	stw	r2,-12(fp)
              NIOS2_EXCEPTION_REG_CAUSE_OFST );

  NIOS2_READ_BADADDR(badaddr);
  8001fc:	0005333a 	rdctl	r2,badaddr
  800200:	e0bffe15 	stw	r2,-8(fp)
#else
  cause = NIOS2_EXCEPTION_CAUSE_NOT_PRESENT;
  badaddr = 0;
#endif /* NIOS2_HAS_EXTRA_EXCEPTION_INFO */

  if(alt_instruction_exception_handler) {
  800204:	d0a77817 	ldw	r2,-25120(gp)
  800208:	10000726 	beq	r2,zero,800228 <alt_instruction_exception_entry+0x58>
     * Call handler. Its return value indicates whether the exception-causing
     * instruction should be re-issued. The code that called us,
     * alt_eceptions_entry.S, will look at this value and adjust the ea
     * register as necessary
     */
    return alt_instruction_exception_handler(cause, exception_pc, badaddr);
  80020c:	d0a77817 	ldw	r2,-25120(gp)
  800210:	e0fffd17 	ldw	r3,-12(fp)
  800214:	e1bffe17 	ldw	r6,-8(fp)
  800218:	e17fff17 	ldw	r5,-4(fp)
  80021c:	1809883a 	mov	r4,r3
  800220:	103ee83a 	callr	r2
  800224:	00000206 	br	800230 <alt_instruction_exception_entry+0x60>
   *    (a peripheral which negates its interrupt output before its
   *    interrupt handler has been executed will cause spurious interrupts)
   */
  else {
#ifdef NIOS2_HAS_DEBUG_STUB
    NIOS2_BREAK();
  800228:	003da03a 	break	0
      ;
#endif /* NIOS2_HAS_DEBUG_STUB */
  }

  /* We should not get here. Remove compiler warning. */
  return NIOS2_EXCEPTION_RETURN_REISSUE_INST;
  80022c:	0005883a 	mov	r2,zero
}
  800230:	e037883a 	mov	sp,fp
  800234:	dfc00117 	ldw	ra,4(sp)
  800238:	df000017 	ldw	fp,0(sp)
  80023c:	dec00204 	addi	sp,sp,8
  800240:	f800283a 	ret

Disassembly of section .text:

00800244 <_start>:

    /* Assume the data cache size is always a power of two. */
#if NIOS2_DCACHE_SIZE > 0x8000
    movhi r2, %hi(NIOS2_DCACHE_SIZE)
#else
    movui r2, NIOS2_DCACHE_SIZE
  800244:	00820014 	movui	r2,2048
#endif

0:
    initd 0(r2)
  800248:	10000033 	initd	0(r2)
#ifdef NIOS2_ECC_PRESENT
    addi r2, r2, -4
#else
    addi r2, r2, -NIOS2_DCACHE_LINE_SIZE
  80024c:	10bff804 	addi	r2,r2,-32
#endif
    bgt r2, zero, 0b
  800250:	00bffd16 	blt	zero,r2,800248 <__alt_mem_onchip_mem+0xff780248>

    /*
     * Now that the caches are initialized, set up the stack pointer and global pointer.
     * The values provided by the linker are assumed to be correctly aligned.
     */
    movhi sp, %hi(__alt_stack_pointer)
  800254:	06c04034 	movhi	sp,256
    ori sp, sp, %lo(__alt_stack_pointer)
  800258:	dec00014 	ori	sp,sp,0
    movhi gp, %hi(_gp)
  80025c:	06802074 	movhi	gp,129
    ori gp, gp, %lo(_gp)
  800260:	d6b81814 	ori	gp,gp,57440
 */
#ifndef ALT_SIM_OPTIMIZE
    /* Log that the BSS is about to be cleared. */
    ALT_LOG_PUTS(alt_log_msg_bss)

    movhi r2, %hi(__bss_start)
  800264:	00802074 	movhi	r2,129
    ori r2, r2, %lo(__bss_start)
  800268:	109f7214 	ori	r2,r2,32200

    movhi r3, %hi(__bss_end)
  80026c:	00c02074 	movhi	r3,129
    ori r3, r3, %lo(__bss_end)
  800270:	18dffa14 	ori	r3,r3,32744

    beq r2, r3, 1f
  800274:	10c00326 	beq	r2,r3,800284 <_start+0x40>

0:
    stw zero, (r2)
  800278:	10000015 	stw	zero,0(r2)
    addi r2, r2, 4
  80027c:	10800104 	addi	r2,r2,4
    bltu r2, r3, 0b
  800280:	10fffd36 	bltu	r2,r3,800278 <__alt_mem_onchip_mem+0xff780278>
     * section aren't defined until alt_load() has been called).
     */
    mov   et, zero
#endif

    call alt_load
  800284:	080ffe80 	call	80ffe8 <alt_load>

    /* Log that alt_main is about to be called. */
    ALT_LOG_PUTS(alt_log_msg_alt_main)

    /* Call the C entry point. It should never return. */
    call alt_main
  800288:	081017c0 	call	81017c <alt_main>

0080028c <alt_after_alt_main>:

    /* Wait in infinite loop in case alt_main does return. */
alt_after_alt_main:
    br alt_after_alt_main
  80028c:	003fff06 	br	80028c <__alt_mem_onchip_mem+0xff78028c>

00800290 <reset_volatiles>:
volatile unsigned int t4 = rrrr;
volatile unsigned int t5 = grrg;
volatile unsigned int t6 = yrry;

//helper function to reset volatile variables on mode change
void reset_volatiles(){
  800290:	deffff04 	addi	sp,sp,-4
  800294:	df000015 	stw	fp,0(sp)
  800298:	d839883a 	mov	fp,sp
	current_state1 = 0;
  80029c:	d0275d15 	stw	zero,-25228(gp)
	current_state2 = 0;
  8002a0:	d0275f15 	stw	zero,-25220(gp)
	current_state3 = 0;
  8002a4:	d0276115 	stw	zero,-25212(gp)
	current_state4 = 0;
  8002a8:	d0276315 	stw	zero,-25204(gp)
	previous_state1 = 0;
  8002ac:	d0275e15 	stw	zero,-25224(gp)
	previous_state2 = 0;
  8002b0:	d0276015 	stw	zero,-25216(gp)
	previous_state3 = 0;
  8002b4:	d0276215 	stw	zero,-25208(gp)
	previous_state4 = 0;
  8002b8:	d0276415 	stw	zero,-25200(gp)
	pedNS = 0;
  8002bc:	d0276515 	stw	zero,-25196(gp)
	pedEW = 0;
  8002c0:	d0276615 	stw	zero,-25192(gp)
	vehicle_cross = 0;
  8002c4:	d0276715 	stw	zero,-25188(gp)
	count = 0;
  8002c8:	d0276815 	stw	zero,-25184(gp)
	t1 = rrrr;
  8002cc:	00807d04 	movi	r2,500
  8002d0:	d0a00315 	stw	r2,-32756(gp)
	t2 = grrg;
  8002d4:	0085dc04 	movi	r2,6000
  8002d8:	d0a00415 	stw	r2,-32752(gp)
	t3 = yrry;
  8002dc:	0081f404 	movi	r2,2000
  8002e0:	d0a00515 	stw	r2,-32748(gp)
	t4 = rrrr;
  8002e4:	00807d04 	movi	r2,500
  8002e8:	d0a00615 	stw	r2,-32744(gp)
	t5 = grrg;
  8002ec:	0085dc04 	movi	r2,6000
  8002f0:	d0a00715 	stw	r2,-32740(gp)
	t6 = yrry;
  8002f4:	0081f404 	movi	r2,2000
  8002f8:	d0a00815 	stw	r2,-32736(gp)
}
  8002fc:	0001883a 	nop
  800300:	e037883a 	mov	sp,fp
  800304:	df000017 	ldw	fp,0(sp)
  800308:	dec00104 	addi	sp,sp,4
  80030c:	f800283a 	ret

00800310 <simple_tlc_timer_isr>:

alt_u32 simple_tlc_timer_isr(void* context){
  800310:	defffd04 	addi	sp,sp,-12
  800314:	dfc00215 	stw	ra,8(sp)
  800318:	df000115 	stw	fp,4(sp)
  80031c:	df000104 	addi	fp,sp,4
  800320:	e13fff15 	stw	r4,-4(fp)
	//if there is a pending mode request and we are in a safe state, do not run any output logic and kill the timer
	if (mode_request != current_mode){
  800324:	d0e75c17 	ldw	r3,-25232(gp)
  800328:	d0a00017 	ldw	r2,-32768(gp)
  80032c:	18800726 	beq	r3,r2,80034c <simple_tlc_timer_isr+0x3c>
		if ((current_state1 == rr1_1) || (current_state1 == rr2_1))
  800330:	d0a75d17 	ldw	r2,-25228(gp)
  800334:	10000326 	beq	r2,zero,800344 <simple_tlc_timer_isr+0x34>
  800338:	d0a75d17 	ldw	r2,-25228(gp)
  80033c:	108000d8 	cmpnei	r2,r2,3
  800340:	1000021e 	bne	r2,zero,80034c <simple_tlc_timer_isr+0x3c>
			return 0;
  800344:	0005883a 	mov	r2,zero
  800348:	00001006 	br	80038c <simple_tlc_timer_isr+0x7c>
	}

	previous_state1 = current_state1; //save previous state for output transition logic
  80034c:	d0a75d17 	ldw	r2,-25228(gp)
  800350:	d0a75e15 	stw	r2,-25224(gp)
	current_state1++; //move to the next state
  800354:	d0a75d17 	ldw	r2,-25228(gp)
  800358:	10800044 	addi	r2,r2,1
  80035c:	d0a75d15 	stw	r2,-25228(gp)
	if (current_state1 == buffer_1) //if at final state, loop back to initial state using a buffer state
  800360:	d0a75d17 	ldw	r2,-25228(gp)
  800364:	10800198 	cmpnei	r2,r2,6
  800368:	1000011e 	bne	r2,zero,800370 <simple_tlc_timer_isr+0x60>
		current_state1 = rr1_1;
  80036c:	d0275d15 	stw	zero,-25228(gp)
	printf("current state simple_timer %d\n", current_state1);
  800370:	d0a75d17 	ldw	r2,-25228(gp)
  800374:	100b883a 	mov	r5,r2
  800378:	01002074 	movhi	r4,129
  80037c:	210f1d04 	addi	r4,r4,15476
  800380:	0803a6c0 	call	803a6c <printf>
	timer_has_started = 0; //reset timer_started flag
  800384:	d0275a15 	stw	zero,-25240(gp)
	return 0;
  800388:	0005883a 	mov	r2,zero
}
  80038c:	e037883a 	mov	sp,fp
  800390:	dfc00117 	ldw	ra,4(sp)
  800394:	df000017 	ldw	fp,0(sp)
  800398:	dec00204 	addi	sp,sp,8
  80039c:	f800283a 	ret

008003a0 <pedestrian_tlc_timer_isr>:

alt_u32 pedestrian_tlc_timer_isr(void* context){
  8003a0:	defffd04 	addi	sp,sp,-12
  8003a4:	dfc00215 	stw	ra,8(sp)
  8003a8:	df000115 	stw	fp,4(sp)
  8003ac:	df000104 	addi	fp,sp,4
  8003b0:	e13fff15 	stw	r4,-4(fp)
	//if there is a pending mode request and we are in a safe state, do not run any output logic and kill the timer
	if (mode_request != current_mode){
  8003b4:	d0e75c17 	ldw	r3,-25232(gp)
  8003b8:	d0a00017 	ldw	r2,-32768(gp)
  8003bc:	18800a26 	beq	r3,r2,8003e8 <pedestrian_tlc_timer_isr+0x48>
		if ((current_state2 == rr1_2) | (current_state2 == rr2_2))
  8003c0:	d0a75f17 	ldw	r2,-25220(gp)
  8003c4:	1005003a 	cmpeq	r2,r2,zero
  8003c8:	1007883a 	mov	r3,r2
  8003cc:	d0a75f17 	ldw	r2,-25220(gp)
  8003d0:	10800120 	cmpeqi	r2,r2,4
  8003d4:	1884b03a 	or	r2,r3,r2
  8003d8:	10803fcc 	andi	r2,r2,255
  8003dc:	10000226 	beq	r2,zero,8003e8 <pedestrian_tlc_timer_isr+0x48>
			return 0;
  8003e0:	0005883a 	mov	r2,zero
  8003e4:	00007e06 	br	8005e0 <pedestrian_tlc_timer_isr+0x240>
	}

	previous_state2 = current_state2; //save previous state for output transition logic
  8003e8:	d0a75f17 	ldw	r2,-25220(gp)
  8003ec:	d0a76015 	stw	r2,-25216(gp)
	if ((pedEW) && (pedNS)){
  8003f0:	d0a76617 	ldw	r2,-25192(gp)
  8003f4:	10002026 	beq	r2,zero,800478 <pedestrian_tlc_timer_isr+0xd8>
  8003f8:	d0a76517 	ldw	r2,-25196(gp)
  8003fc:	10001e26 	beq	r2,zero,800478 <pedestrian_tlc_timer_isr+0xd8>
		//handle pedestrians at either of the RED-RED states because
		if ((current_state2 == rr1_2) | (current_state2 == rr2_2))
  800400:	d0a75f17 	ldw	r2,-25220(gp)
  800404:	1005003a 	cmpeq	r2,r2,zero
  800408:	1007883a 	mov	r3,r2
  80040c:	d0a75f17 	ldw	r2,-25220(gp)
  800410:	10800120 	cmpeqi	r2,r2,4
  800414:	1884b03a 	or	r2,r3,r2
  800418:	10803fcc 	andi	r2,r2,255
  80041c:	10000426 	beq	r2,zero,800430 <pedestrian_tlc_timer_isr+0x90>
			current_state2 += 2;
  800420:	d0a75f17 	ldw	r2,-25220(gp)
  800424:	10800084 	addi	r2,r2,2
  800428:	d0a75f15 	stw	r2,-25220(gp)
	}

	previous_state2 = current_state2; //save previous state for output transition logic
	if ((pedEW) && (pedNS)){
		//handle pedestrians at either of the RED-RED states because
		if ((current_state2 == rr1_2) | (current_state2 == rr2_2))
  80042c:	00005806 	br	800590 <pedestrian_tlc_timer_isr+0x1f0>
			current_state2 += 2;
		//we are at state GREEN-RED, too late to handle NS pedestrians so skip past PED state
		else if (current_state2 == gr_2)
  800430:	d0a75f17 	ldw	r2,-25220(gp)
  800434:	10800058 	cmpnei	r2,r2,1
  800438:	1000041e 	bne	r2,zero,80044c <pedestrian_tlc_timer_isr+0xac>
			current_state2 += 2;
  80043c:	d0a75f17 	ldw	r2,-25220(gp)
  800440:	10800084 	addi	r2,r2,2
  800444:	d0a75f15 	stw	r2,-25220(gp)
	}

	previous_state2 = current_state2; //save previous state for output transition logic
	if ((pedEW) && (pedNS)){
		//handle pedestrians at either of the RED-RED states because
		if ((current_state2 == rr1_2) | (current_state2 == rr2_2))
  800448:	00005106 	br	800590 <pedestrian_tlc_timer_isr+0x1f0>
			current_state2 += 2;
		//we are at state GREEN-RED, too late to handle NS pedestrians so skip past PED state
		else if (current_state2 == gr_2)
			current_state2 += 2;
		//we are at state RED-GREEN, cannot handle NS pedestrians here so skip past PED state
		else if (current_state2 == rg_2)
  80044c:	d0a75f17 	ldw	r2,-25220(gp)
  800450:	10800158 	cmpnei	r2,r2,5
  800454:	1000041e 	bne	r2,zero,800468 <pedestrian_tlc_timer_isr+0xc8>
			current_state2 += 2;
  800458:	d0a75f17 	ldw	r2,-25220(gp)
  80045c:	10800084 	addi	r2,r2,2
  800460:	d0a75f15 	stw	r2,-25220(gp)
	}

	previous_state2 = current_state2; //save previous state for output transition logic
	if ((pedEW) && (pedNS)){
		//handle pedestrians at either of the RED-RED states because
		if ((current_state2 == rr1_2) | (current_state2 == rr2_2))
  800464:	00004a06 	br	800590 <pedestrian_tlc_timer_isr+0x1f0>
			current_state2 += 2;
		//we are at state RED-GREEN, cannot handle NS pedestrians here so skip past PED state
		else if (current_state2 == rg_2)
			current_state2 += 2;
		else
			current_state2++;
  800468:	d0a75f17 	ldw	r2,-25220(gp)
  80046c:	10800044 	addi	r2,r2,1
  800470:	d0a75f15 	stw	r2,-25220(gp)
	}

	previous_state2 = current_state2; //save previous state for output transition logic
	if ((pedEW) && (pedNS)){
		//handle pedestrians at either of the RED-RED states because
		if ((current_state2 == rr1_2) | (current_state2 == rr2_2))
  800474:	00004606 	br	800590 <pedestrian_tlc_timer_isr+0x1f0>
		else if (current_state2 == rg_2)
			current_state2 += 2;
		else
			current_state2++;
	}
	else if (pedNS){
  800478:	d0a76517 	ldw	r2,-25196(gp)
  80047c:	10001826 	beq	r2,zero,8004e0 <pedestrian_tlc_timer_isr+0x140>
		//we are at state RED-RED (1), handle NS pedestrians
		if (current_state2 == rr1_2)
  800480:	d0a75f17 	ldw	r2,-25220(gp)
  800484:	1000041e 	bne	r2,zero,800498 <pedestrian_tlc_timer_isr+0xf8>
			current_state2 += 2;
  800488:	d0a75f17 	ldw	r2,-25220(gp)
  80048c:	10800084 	addi	r2,r2,2
  800490:	d0a75f15 	stw	r2,-25220(gp)
  800494:	00003e06 	br	800590 <pedestrian_tlc_timer_isr+0x1f0>
		//we are at state GREEN-RED, too late to handle NS pedestrians so skip past PED state
		else if (current_state2 == gr_2)
  800498:	d0a75f17 	ldw	r2,-25220(gp)
  80049c:	10800058 	cmpnei	r2,r2,1
  8004a0:	1000041e 	bne	r2,zero,8004b4 <pedestrian_tlc_timer_isr+0x114>
			current_state2 += 2;
  8004a4:	d0a75f17 	ldw	r2,-25220(gp)
  8004a8:	10800084 	addi	r2,r2,2
  8004ac:	d0a75f15 	stw	r2,-25220(gp)
  8004b0:	00003706 	br	800590 <pedestrian_tlc_timer_isr+0x1f0>
		//we are at state RED-GREEN, cannot handle NS pedestrians here so skip past PED state
		else if (current_state2 == rg_2)
  8004b4:	d0a75f17 	ldw	r2,-25220(gp)
  8004b8:	10800158 	cmpnei	r2,r2,5
  8004bc:	1000041e 	bne	r2,zero,8004d0 <pedestrian_tlc_timer_isr+0x130>
			current_state2 += 2;
  8004c0:	d0a75f17 	ldw	r2,-25220(gp)
  8004c4:	10800084 	addi	r2,r2,2
  8004c8:	d0a75f15 	stw	r2,-25220(gp)
  8004cc:	00003006 	br	800590 <pedestrian_tlc_timer_isr+0x1f0>
		else
			current_state2++;
  8004d0:	d0a75f17 	ldw	r2,-25220(gp)
  8004d4:	10800044 	addi	r2,r2,1
  8004d8:	d0a75f15 	stw	r2,-25220(gp)
  8004dc:	00002c06 	br	800590 <pedestrian_tlc_timer_isr+0x1f0>
	}
	else if (pedEW){
  8004e0:	d0a76617 	ldw	r2,-25192(gp)
  8004e4:	10001926 	beq	r2,zero,80054c <pedestrian_tlc_timer_isr+0x1ac>
		//we are at state RED-RED (2), handle EW pedestrians
		if (current_state2 == rr2_2)
  8004e8:	d0a75f17 	ldw	r2,-25220(gp)
  8004ec:	10800118 	cmpnei	r2,r2,4
  8004f0:	1000041e 	bne	r2,zero,800504 <pedestrian_tlc_timer_isr+0x164>
			current_state2 += 2;
  8004f4:	d0a75f17 	ldw	r2,-25220(gp)
  8004f8:	10800084 	addi	r2,r2,2
  8004fc:	d0a75f15 	stw	r2,-25220(gp)
  800500:	00002306 	br	800590 <pedestrian_tlc_timer_isr+0x1f0>
		//we are at state RED-GREEN, too late to handle EW pedestrians so skip past PED state
		else if (current_state2 == rg_2)
  800504:	d0a75f17 	ldw	r2,-25220(gp)
  800508:	10800158 	cmpnei	r2,r2,5
  80050c:	1000041e 	bne	r2,zero,800520 <pedestrian_tlc_timer_isr+0x180>
			current_state2 += 2;
  800510:	d0a75f17 	ldw	r2,-25220(gp)
  800514:	10800084 	addi	r2,r2,2
  800518:	d0a75f15 	stw	r2,-25220(gp)
  80051c:	00001c06 	br	800590 <pedestrian_tlc_timer_isr+0x1f0>
		//we are at state GREEN-RED, cannot handle EW pedestrians here so skip past PED state
		else if (current_state2 == gr_2)
  800520:	d0a75f17 	ldw	r2,-25220(gp)
  800524:	10800058 	cmpnei	r2,r2,1
  800528:	1000041e 	bne	r2,zero,80053c <pedestrian_tlc_timer_isr+0x19c>
			current_state2 += 2;
  80052c:	d0a75f17 	ldw	r2,-25220(gp)
  800530:	10800084 	addi	r2,r2,2
  800534:	d0a75f15 	stw	r2,-25220(gp)
  800538:	00001506 	br	800590 <pedestrian_tlc_timer_isr+0x1f0>
		else
			current_state2++;
  80053c:	d0a75f17 	ldw	r2,-25220(gp)
  800540:	10800044 	addi	r2,r2,1
  800544:	d0a75f15 	stw	r2,-25220(gp)
  800548:	00001106 	br	800590 <pedestrian_tlc_timer_isr+0x1f0>
	}
	//if no PED interrupt flags, skip past PED states from GREEN-RED and RED-GREEN
	else if (current_state2 == gr_2)
  80054c:	d0a75f17 	ldw	r2,-25220(gp)
  800550:	10800058 	cmpnei	r2,r2,1
  800554:	1000041e 	bne	r2,zero,800568 <pedestrian_tlc_timer_isr+0x1c8>
		current_state2 += 2;
  800558:	d0a75f17 	ldw	r2,-25220(gp)
  80055c:	10800084 	addi	r2,r2,2
  800560:	d0a75f15 	stw	r2,-25220(gp)
  800564:	00000a06 	br	800590 <pedestrian_tlc_timer_isr+0x1f0>
	else if (current_state2 == rg_2)
  800568:	d0a75f17 	ldw	r2,-25220(gp)
  80056c:	10800158 	cmpnei	r2,r2,5
  800570:	1000041e 	bne	r2,zero,800584 <pedestrian_tlc_timer_isr+0x1e4>
		current_state2 += 2;
  800574:	d0a75f17 	ldw	r2,-25220(gp)
  800578:	10800084 	addi	r2,r2,2
  80057c:	d0a75f15 	stw	r2,-25220(gp)
  800580:	00000306 	br	800590 <pedestrian_tlc_timer_isr+0x1f0>
	else
		current_state2++; //move to the next state if no special condition has been met
  800584:	d0a75f17 	ldw	r2,-25220(gp)
  800588:	10800044 	addi	r2,r2,1
  80058c:	d0a75f15 	stw	r2,-25220(gp)

	//reset the NS/EW pedestrian button interrupt flag when we have changed state (NS/EWHandled = 1)
	if (previous_state2 == grp1_2)
  800590:	d0a76017 	ldw	r2,-25216(gp)
  800594:	10800098 	cmpnei	r2,r2,2
  800598:	1000021e 	bne	r2,zero,8005a4 <pedestrian_tlc_timer_isr+0x204>
		pedNS = 0;
  80059c:	d0276515 	stw	zero,-25196(gp)
  8005a0:	00000406 	br	8005b4 <pedestrian_tlc_timer_isr+0x214>
	else if (previous_state2 == rgp2_2)
  8005a4:	d0a76017 	ldw	r2,-25216(gp)
  8005a8:	10800198 	cmpnei	r2,r2,6
  8005ac:	1000011e 	bne	r2,zero,8005b4 <pedestrian_tlc_timer_isr+0x214>
		pedEW = 0;
  8005b0:	d0276615 	stw	zero,-25192(gp)

	if (current_state2 == buffer_2) //if at final state, loop back to initial state using buffer state
  8005b4:	d0a75f17 	ldw	r2,-25220(gp)
  8005b8:	10800218 	cmpnei	r2,r2,8
  8005bc:	1000011e 	bne	r2,zero,8005c4 <pedestrian_tlc_timer_isr+0x224>
		current_state2 = rr1_2;
  8005c0:	d0275f15 	stw	zero,-25220(gp)
	printf("current state ped_timer %d\n", current_state2);
  8005c4:	d0a75f17 	ldw	r2,-25220(gp)
  8005c8:	100b883a 	mov	r5,r2
  8005cc:	01002074 	movhi	r4,129
  8005d0:	210f2504 	addi	r4,r4,15508
  8005d4:	0803a6c0 	call	803a6c <printf>

	timer_has_started = 0; //reset timer_started flag
  8005d8:	d0275a15 	stw	zero,-25240(gp)
return 0;
  8005dc:	0005883a 	mov	r2,zero
}
  8005e0:	e037883a 	mov	sp,fp
  8005e4:	dfc00117 	ldw	ra,4(sp)
  8005e8:	df000017 	ldw	fp,0(sp)
  8005ec:	dec00204 	addi	sp,sp,8
  8005f0:	f800283a 	ret

008005f4 <configurable_tlc_timer_isr>:

//timer ISR (and system state transition logic) for configurable timer
alt_u32 configurable_tlc_timer_isr(void* context){
  8005f4:	defffd04 	addi	sp,sp,-12
  8005f8:	dfc00215 	stw	ra,8(sp)
  8005fc:	df000115 	stw	fp,4(sp)
  800600:	df000104 	addi	fp,sp,4
  800604:	e13fff15 	stw	r4,-4(fp)
	//if there is a pending mode request and we are in a safe state, do not run any output logic and kill the timer
	if (mode_request != current_mode){
  800608:	d0e75c17 	ldw	r3,-25232(gp)
  80060c:	d0a00017 	ldw	r2,-32768(gp)
  800610:	18800726 	beq	r3,r2,800630 <configurable_tlc_timer_isr+0x3c>
		if ((current_state3 == rr1_3) || (current_state3 == rr2_3))
  800614:	d0a76117 	ldw	r2,-25212(gp)
  800618:	10000326 	beq	r2,zero,800628 <configurable_tlc_timer_isr+0x34>
  80061c:	d0a76117 	ldw	r2,-25212(gp)
  800620:	10800118 	cmpnei	r2,r2,4
  800624:	1000021e 	bne	r2,zero,800630 <configurable_tlc_timer_isr+0x3c>
			return 0;
  800628:	0005883a 	mov	r2,zero
  80062c:	00007e06 	br	800828 <configurable_tlc_timer_isr+0x234>
	}

	previous_state3 = current_state3; //save previous state for output transition logic
  800630:	d0a76117 	ldw	r2,-25212(gp)
  800634:	d0a76215 	stw	r2,-25208(gp)
	if ((pedEW) && (pedNS)){
  800638:	d0a76617 	ldw	r2,-25192(gp)
  80063c:	10002026 	beq	r2,zero,8006c0 <configurable_tlc_timer_isr+0xcc>
  800640:	d0a76517 	ldw	r2,-25196(gp)
  800644:	10001e26 	beq	r2,zero,8006c0 <configurable_tlc_timer_isr+0xcc>
		//handle pedestrians at either of the RED-RED states because
		if ((current_state3 == rr1_3) | (current_state3 == rr2_3))
  800648:	d0a76117 	ldw	r2,-25212(gp)
  80064c:	1005003a 	cmpeq	r2,r2,zero
  800650:	1007883a 	mov	r3,r2
  800654:	d0a76117 	ldw	r2,-25212(gp)
  800658:	10800120 	cmpeqi	r2,r2,4
  80065c:	1884b03a 	or	r2,r3,r2
  800660:	10803fcc 	andi	r2,r2,255
  800664:	10000426 	beq	r2,zero,800678 <configurable_tlc_timer_isr+0x84>
			current_state3 += 2;
  800668:	d0a76117 	ldw	r2,-25212(gp)
  80066c:	10800084 	addi	r2,r2,2
  800670:	d0a76115 	stw	r2,-25212(gp)
	}

	previous_state3 = current_state3; //save previous state for output transition logic
	if ((pedEW) && (pedNS)){
		//handle pedestrians at either of the RED-RED states because
		if ((current_state3 == rr1_3) | (current_state3 == rr2_3))
  800674:	00005806 	br	8007d8 <configurable_tlc_timer_isr+0x1e4>
			current_state3 += 2;
		//we are at state GREEN-RED, too late to handle NS pedestrians so skip past PED state
		else if (current_state3 == gr_3)
  800678:	d0a76117 	ldw	r2,-25212(gp)
  80067c:	10800058 	cmpnei	r2,r2,1
  800680:	1000041e 	bne	r2,zero,800694 <configurable_tlc_timer_isr+0xa0>
			current_state3 += 2;
  800684:	d0a76117 	ldw	r2,-25212(gp)
  800688:	10800084 	addi	r2,r2,2
  80068c:	d0a76115 	stw	r2,-25212(gp)
	}

	previous_state3 = current_state3; //save previous state for output transition logic
	if ((pedEW) && (pedNS)){
		//handle pedestrians at either of the RED-RED states because
		if ((current_state3 == rr1_3) | (current_state3 == rr2_3))
  800690:	00005106 	br	8007d8 <configurable_tlc_timer_isr+0x1e4>
			current_state3 += 2;
		//we are at state GREEN-RED, too late to handle NS pedestrians so skip past PED state
		else if (current_state3 == gr_3)
			current_state3 += 2;
		//we are at state RED-GREEN, cannot handle NS pedestrians here so skip past PED state
		else if (current_state3 == rg_3)
  800694:	d0a76117 	ldw	r2,-25212(gp)
  800698:	10800158 	cmpnei	r2,r2,5
  80069c:	1000041e 	bne	r2,zero,8006b0 <configurable_tlc_timer_isr+0xbc>
			current_state3 += 2;
  8006a0:	d0a76117 	ldw	r2,-25212(gp)
  8006a4:	10800084 	addi	r2,r2,2
  8006a8:	d0a76115 	stw	r2,-25212(gp)
	}

	previous_state3 = current_state3; //save previous state for output transition logic
	if ((pedEW) && (pedNS)){
		//handle pedestrians at either of the RED-RED states because
		if ((current_state3 == rr1_3) | (current_state3 == rr2_3))
  8006ac:	00004a06 	br	8007d8 <configurable_tlc_timer_isr+0x1e4>
			current_state3 += 2;
		//we are at state RED-GREEN, cannot handle NS pedestrians here so skip past PED state
		else if (current_state3 == rg_3)
			current_state3 += 2;
		else
			current_state3++;
  8006b0:	d0a76117 	ldw	r2,-25212(gp)
  8006b4:	10800044 	addi	r2,r2,1
  8006b8:	d0a76115 	stw	r2,-25212(gp)
	}

	previous_state3 = current_state3; //save previous state for output transition logic
	if ((pedEW) && (pedNS)){
		//handle pedestrians at either of the RED-RED states because
		if ((current_state3 == rr1_3) | (current_state3 == rr2_3))
  8006bc:	00004606 	br	8007d8 <configurable_tlc_timer_isr+0x1e4>
		else if (current_state3 == rg_3)
			current_state3 += 2;
		else
			current_state3++;
	}
	else if (pedNS){
  8006c0:	d0a76517 	ldw	r2,-25196(gp)
  8006c4:	10001826 	beq	r2,zero,800728 <configurable_tlc_timer_isr+0x134>
		//we are at state RED-RED (1), handle NS pedestrians
		if (current_state3 == rr1_3)
  8006c8:	d0a76117 	ldw	r2,-25212(gp)
  8006cc:	1000041e 	bne	r2,zero,8006e0 <configurable_tlc_timer_isr+0xec>
			current_state3 += 2;
  8006d0:	d0a76117 	ldw	r2,-25212(gp)
  8006d4:	10800084 	addi	r2,r2,2
  8006d8:	d0a76115 	stw	r2,-25212(gp)
  8006dc:	00003e06 	br	8007d8 <configurable_tlc_timer_isr+0x1e4>
		//we are at state GREEN-RED, too late to handle NS pedestrians so skip past PED state
		else if (current_state3 == gr_3)
  8006e0:	d0a76117 	ldw	r2,-25212(gp)
  8006e4:	10800058 	cmpnei	r2,r2,1
  8006e8:	1000041e 	bne	r2,zero,8006fc <configurable_tlc_timer_isr+0x108>
			current_state3 += 2;
  8006ec:	d0a76117 	ldw	r2,-25212(gp)
  8006f0:	10800084 	addi	r2,r2,2
  8006f4:	d0a76115 	stw	r2,-25212(gp)
  8006f8:	00003706 	br	8007d8 <configurable_tlc_timer_isr+0x1e4>
		//we are at state RED-GREEN, cannot handle NS pedestrians here so skip past PED state
		else if (current_state3 == rg_3)
  8006fc:	d0a76117 	ldw	r2,-25212(gp)
  800700:	10800158 	cmpnei	r2,r2,5
  800704:	1000041e 	bne	r2,zero,800718 <configurable_tlc_timer_isr+0x124>
			current_state3 += 2;
  800708:	d0a76117 	ldw	r2,-25212(gp)
  80070c:	10800084 	addi	r2,r2,2
  800710:	d0a76115 	stw	r2,-25212(gp)
  800714:	00003006 	br	8007d8 <configurable_tlc_timer_isr+0x1e4>
		else
			current_state3++;
  800718:	d0a76117 	ldw	r2,-25212(gp)
  80071c:	10800044 	addi	r2,r2,1
  800720:	d0a76115 	stw	r2,-25212(gp)
  800724:	00002c06 	br	8007d8 <configurable_tlc_timer_isr+0x1e4>
	}
	else if (pedEW){
  800728:	d0a76617 	ldw	r2,-25192(gp)
  80072c:	10001926 	beq	r2,zero,800794 <configurable_tlc_timer_isr+0x1a0>
		//we are at state RED-RED (2), handle EW pedestrians
		if (current_state3 == rr2_3)
  800730:	d0a76117 	ldw	r2,-25212(gp)
  800734:	10800118 	cmpnei	r2,r2,4
  800738:	1000041e 	bne	r2,zero,80074c <configurable_tlc_timer_isr+0x158>
			current_state3 += 2;
  80073c:	d0a76117 	ldw	r2,-25212(gp)
  800740:	10800084 	addi	r2,r2,2
  800744:	d0a76115 	stw	r2,-25212(gp)
  800748:	00002306 	br	8007d8 <configurable_tlc_timer_isr+0x1e4>
		//we are at state RED-GREEN, too late to handle EW pedestrians so skip past PED state
		else if (current_state3 == rg_3)
  80074c:	d0a76117 	ldw	r2,-25212(gp)
  800750:	10800158 	cmpnei	r2,r2,5
  800754:	1000041e 	bne	r2,zero,800768 <configurable_tlc_timer_isr+0x174>
			current_state3 += 2;
  800758:	d0a76117 	ldw	r2,-25212(gp)
  80075c:	10800084 	addi	r2,r2,2
  800760:	d0a76115 	stw	r2,-25212(gp)
  800764:	00001c06 	br	8007d8 <configurable_tlc_timer_isr+0x1e4>
		//we are at state GREEN-RED, cannot handle EW pedestrians here so skip past PED state
		else if (current_state3 == gr_3)
  800768:	d0a76117 	ldw	r2,-25212(gp)
  80076c:	10800058 	cmpnei	r2,r2,1
  800770:	1000041e 	bne	r2,zero,800784 <configurable_tlc_timer_isr+0x190>
			current_state3 += 2;
  800774:	d0a76117 	ldw	r2,-25212(gp)
  800778:	10800084 	addi	r2,r2,2
  80077c:	d0a76115 	stw	r2,-25212(gp)
  800780:	00001506 	br	8007d8 <configurable_tlc_timer_isr+0x1e4>
		else
			current_state3++;
  800784:	d0a76117 	ldw	r2,-25212(gp)
  800788:	10800044 	addi	r2,r2,1
  80078c:	d0a76115 	stw	r2,-25212(gp)
  800790:	00001106 	br	8007d8 <configurable_tlc_timer_isr+0x1e4>
	}
	//if no PED interrupt flags, skip past PED states from GREEN-RED and RED-GREEN
	else if (current_state3 == gr_3)
  800794:	d0a76117 	ldw	r2,-25212(gp)
  800798:	10800058 	cmpnei	r2,r2,1
  80079c:	1000041e 	bne	r2,zero,8007b0 <configurable_tlc_timer_isr+0x1bc>
		current_state3 += 2;
  8007a0:	d0a76117 	ldw	r2,-25212(gp)
  8007a4:	10800084 	addi	r2,r2,2
  8007a8:	d0a76115 	stw	r2,-25212(gp)
  8007ac:	00000a06 	br	8007d8 <configurable_tlc_timer_isr+0x1e4>
	else if (current_state3 == rg_3)
  8007b0:	d0a76117 	ldw	r2,-25212(gp)
  8007b4:	10800158 	cmpnei	r2,r2,5
  8007b8:	1000041e 	bne	r2,zero,8007cc <configurable_tlc_timer_isr+0x1d8>
		current_state3 += 2;
  8007bc:	d0a76117 	ldw	r2,-25212(gp)
  8007c0:	10800084 	addi	r2,r2,2
  8007c4:	d0a76115 	stw	r2,-25212(gp)
  8007c8:	00000306 	br	8007d8 <configurable_tlc_timer_isr+0x1e4>
	else
		current_state3++; //move to the next state if no
  8007cc:	d0a76117 	ldw	r2,-25212(gp)
  8007d0:	10800044 	addi	r2,r2,1
  8007d4:	d0a76115 	stw	r2,-25212(gp)

	//reset the NS/EW pedestrian button interrupt flag when we have changed state (NS/EWHandled = 1)
	if (previous_state3 == grp1_3)
  8007d8:	d0a76217 	ldw	r2,-25208(gp)
  8007dc:	10800098 	cmpnei	r2,r2,2
  8007e0:	1000021e 	bne	r2,zero,8007ec <configurable_tlc_timer_isr+0x1f8>
		pedNS = 0;
  8007e4:	d0276515 	stw	zero,-25196(gp)
  8007e8:	00000406 	br	8007fc <configurable_tlc_timer_isr+0x208>
	else if (previous_state3 == rgp2_3)
  8007ec:	d0a76217 	ldw	r2,-25208(gp)
  8007f0:	10800198 	cmpnei	r2,r2,6
  8007f4:	1000011e 	bne	r2,zero,8007fc <configurable_tlc_timer_isr+0x208>
		pedEW = 0;
  8007f8:	d0276615 	stw	zero,-25192(gp)

	if (current_state3 == buffer_3) //if at final state, loop back to initial state using buffer state
  8007fc:	d0a76117 	ldw	r2,-25212(gp)
  800800:	10800218 	cmpnei	r2,r2,8
  800804:	1000011e 	bne	r2,zero,80080c <configurable_tlc_timer_isr+0x218>
		current_state3 = rr1_3;
  800808:	d0276115 	stw	zero,-25212(gp)
	printf("current state config_timer %d\n", current_state3);
  80080c:	d0a76117 	ldw	r2,-25212(gp)
  800810:	100b883a 	mov	r5,r2
  800814:	01002074 	movhi	r4,129
  800818:	210f2c04 	addi	r4,r4,15536
  80081c:	0803a6c0 	call	803a6c <printf>

	timer_has_started = 0; //reset timer_started flag
  800820:	d0275a15 	stw	zero,-25240(gp)
return 0;
  800824:	0005883a 	mov	r2,zero
}
  800828:	e037883a 	mov	sp,fp
  80082c:	dfc00117 	ldw	ra,4(sp)
  800830:	df000017 	ldw	fp,0(sp)
  800834:	dec00204 	addi	sp,sp,8
  800838:	f800283a 	ret

0080083c <camera_tlc_timer_isr>:

//timer ISR (and system state transition logic) for configurable timer
alt_u32 camera_tlc_timer_isr(void* context){
  80083c:	defffd04 	addi	sp,sp,-12
  800840:	dfc00215 	stw	ra,8(sp)
  800844:	df000115 	stw	fp,4(sp)
  800848:	df000104 	addi	fp,sp,4
  80084c:	e13fff15 	stw	r4,-4(fp)
	//if there is a pending mode request and we are in a safe state, do not run any output logic and kill the timer
	if (mode_request != current_mode){
  800850:	d0e75c17 	ldw	r3,-25232(gp)
  800854:	d0a00017 	ldw	r2,-32768(gp)
  800858:	18800726 	beq	r3,r2,800878 <camera_tlc_timer_isr+0x3c>
		if ((current_state4 == rr1_4) || (current_state4 == rr2_4))
  80085c:	d0a76317 	ldw	r2,-25204(gp)
  800860:	10000326 	beq	r2,zero,800870 <camera_tlc_timer_isr+0x34>
  800864:	d0a76317 	ldw	r2,-25204(gp)
  800868:	10800118 	cmpnei	r2,r2,4
  80086c:	1000021e 	bne	r2,zero,800878 <camera_tlc_timer_isr+0x3c>
			return 0;
  800870:	0005883a 	mov	r2,zero
  800874:	00007e06 	br	800a70 <camera_tlc_timer_isr+0x234>
	}

	previous_state4 = current_state4; //save previous state for output transition logic
  800878:	d0a76317 	ldw	r2,-25204(gp)
  80087c:	d0a76415 	stw	r2,-25200(gp)
	if ((pedEW) && (pedNS)){
  800880:	d0a76617 	ldw	r2,-25192(gp)
  800884:	10002026 	beq	r2,zero,800908 <camera_tlc_timer_isr+0xcc>
  800888:	d0a76517 	ldw	r2,-25196(gp)
  80088c:	10001e26 	beq	r2,zero,800908 <camera_tlc_timer_isr+0xcc>
		//handle pedestrians at either of the RED-RED states because
		if ((current_state4 == rr1_4) | (current_state4 == rr2_4))
  800890:	d0a76317 	ldw	r2,-25204(gp)
  800894:	1005003a 	cmpeq	r2,r2,zero
  800898:	1007883a 	mov	r3,r2
  80089c:	d0a76317 	ldw	r2,-25204(gp)
  8008a0:	10800120 	cmpeqi	r2,r2,4
  8008a4:	1884b03a 	or	r2,r3,r2
  8008a8:	10803fcc 	andi	r2,r2,255
  8008ac:	10000426 	beq	r2,zero,8008c0 <camera_tlc_timer_isr+0x84>
			current_state4 += 2;
  8008b0:	d0a76317 	ldw	r2,-25204(gp)
  8008b4:	10800084 	addi	r2,r2,2
  8008b8:	d0a76315 	stw	r2,-25204(gp)
	}

	previous_state4 = current_state4; //save previous state for output transition logic
	if ((pedEW) && (pedNS)){
		//handle pedestrians at either of the RED-RED states because
		if ((current_state4 == rr1_4) | (current_state4 == rr2_4))
  8008bc:	00005806 	br	800a20 <camera_tlc_timer_isr+0x1e4>
			current_state4 += 2;
		//we are at state GREEN-RED, too late to handle NS pedestrians so skip past PED state
		else if (current_state4 == gr_4)
  8008c0:	d0a76317 	ldw	r2,-25204(gp)
  8008c4:	10800058 	cmpnei	r2,r2,1
  8008c8:	1000041e 	bne	r2,zero,8008dc <camera_tlc_timer_isr+0xa0>
			current_state4 += 2;
  8008cc:	d0a76317 	ldw	r2,-25204(gp)
  8008d0:	10800084 	addi	r2,r2,2
  8008d4:	d0a76315 	stw	r2,-25204(gp)
	}

	previous_state4 = current_state4; //save previous state for output transition logic
	if ((pedEW) && (pedNS)){
		//handle pedestrians at either of the RED-RED states because
		if ((current_state4 == rr1_4) | (current_state4 == rr2_4))
  8008d8:	00005106 	br	800a20 <camera_tlc_timer_isr+0x1e4>
			current_state4 += 2;
		//we are at state GREEN-RED, too late to handle NS pedestrians so skip past PED state
		else if (current_state4 == gr_4)
			current_state4 += 2;
		//we are at state RED-GREEN, cannot handle NS pedestrians here so skip past PED state
		else if (current_state4 == rg_4)
  8008dc:	d0a76317 	ldw	r2,-25204(gp)
  8008e0:	10800158 	cmpnei	r2,r2,5
  8008e4:	1000041e 	bne	r2,zero,8008f8 <camera_tlc_timer_isr+0xbc>
			current_state4 += 2;
  8008e8:	d0a76317 	ldw	r2,-25204(gp)
  8008ec:	10800084 	addi	r2,r2,2
  8008f0:	d0a76315 	stw	r2,-25204(gp)
	}

	previous_state4 = current_state4; //save previous state for output transition logic
	if ((pedEW) && (pedNS)){
		//handle pedestrians at either of the RED-RED states because
		if ((current_state4 == rr1_4) | (current_state4 == rr2_4))
  8008f4:	00004a06 	br	800a20 <camera_tlc_timer_isr+0x1e4>
			current_state4 += 2;
		//we are at state RED-GREEN, cannot handle NS pedestrians here so skip past PED state
		else if (current_state4 == rg_4)
			current_state4 += 2;
		else
			current_state4++;
  8008f8:	d0a76317 	ldw	r2,-25204(gp)
  8008fc:	10800044 	addi	r2,r2,1
  800900:	d0a76315 	stw	r2,-25204(gp)
	}

	previous_state4 = current_state4; //save previous state for output transition logic
	if ((pedEW) && (pedNS)){
		//handle pedestrians at either of the RED-RED states because
		if ((current_state4 == rr1_4) | (current_state4 == rr2_4))
  800904:	00004606 	br	800a20 <camera_tlc_timer_isr+0x1e4>
		else if (current_state4 == rg_4)
			current_state4 += 2;
		else
			current_state4++;
	}
	else if (pedNS){
  800908:	d0a76517 	ldw	r2,-25196(gp)
  80090c:	10001826 	beq	r2,zero,800970 <camera_tlc_timer_isr+0x134>
		//we are at state RED-RED (1), handle NS pedestrians
		if (current_state4 == rr1_4)
  800910:	d0a76317 	ldw	r2,-25204(gp)
  800914:	1000041e 	bne	r2,zero,800928 <camera_tlc_timer_isr+0xec>
			current_state4 += 2;
  800918:	d0a76317 	ldw	r2,-25204(gp)
  80091c:	10800084 	addi	r2,r2,2
  800920:	d0a76315 	stw	r2,-25204(gp)
  800924:	00003e06 	br	800a20 <camera_tlc_timer_isr+0x1e4>
		//we are at state GREEN-RED, too late to handle NS pedestrians so skip past PED state
		else if (current_state4 == gr_4)
  800928:	d0a76317 	ldw	r2,-25204(gp)
  80092c:	10800058 	cmpnei	r2,r2,1
  800930:	1000041e 	bne	r2,zero,800944 <camera_tlc_timer_isr+0x108>
			current_state4 += 2;
  800934:	d0a76317 	ldw	r2,-25204(gp)
  800938:	10800084 	addi	r2,r2,2
  80093c:	d0a76315 	stw	r2,-25204(gp)
  800940:	00003706 	br	800a20 <camera_tlc_timer_isr+0x1e4>
		//we are at state RED-GREEN, cannot handle NS pedestrians here so skip past PED state
		else if (current_state4 == rg_4)
  800944:	d0a76317 	ldw	r2,-25204(gp)
  800948:	10800158 	cmpnei	r2,r2,5
  80094c:	1000041e 	bne	r2,zero,800960 <camera_tlc_timer_isr+0x124>
			current_state4 += 2;
  800950:	d0a76317 	ldw	r2,-25204(gp)
  800954:	10800084 	addi	r2,r2,2
  800958:	d0a76315 	stw	r2,-25204(gp)
  80095c:	00003006 	br	800a20 <camera_tlc_timer_isr+0x1e4>
		else
			current_state4++;
  800960:	d0a76317 	ldw	r2,-25204(gp)
  800964:	10800044 	addi	r2,r2,1
  800968:	d0a76315 	stw	r2,-25204(gp)
  80096c:	00002c06 	br	800a20 <camera_tlc_timer_isr+0x1e4>
	}
	else if (pedEW){
  800970:	d0a76617 	ldw	r2,-25192(gp)
  800974:	10001926 	beq	r2,zero,8009dc <camera_tlc_timer_isr+0x1a0>
		//we are at state RED-RED (2), handle EW pedestrians
		if (current_state4 == rr2_4)
  800978:	d0a76317 	ldw	r2,-25204(gp)
  80097c:	10800118 	cmpnei	r2,r2,4
  800980:	1000041e 	bne	r2,zero,800994 <camera_tlc_timer_isr+0x158>
			current_state4 += 2;
  800984:	d0a76317 	ldw	r2,-25204(gp)
  800988:	10800084 	addi	r2,r2,2
  80098c:	d0a76315 	stw	r2,-25204(gp)
  800990:	00002306 	br	800a20 <camera_tlc_timer_isr+0x1e4>
		//we are at state RED-GREEN, too late to handle EW pedestrians so skip past PED state
		else if (current_state4 == rg_4)
  800994:	d0a76317 	ldw	r2,-25204(gp)
  800998:	10800158 	cmpnei	r2,r2,5
  80099c:	1000041e 	bne	r2,zero,8009b0 <camera_tlc_timer_isr+0x174>
			current_state4 += 2;
  8009a0:	d0a76317 	ldw	r2,-25204(gp)
  8009a4:	10800084 	addi	r2,r2,2
  8009a8:	d0a76315 	stw	r2,-25204(gp)
  8009ac:	00001c06 	br	800a20 <camera_tlc_timer_isr+0x1e4>
		//we are at state GREEN-RED, cannot handle EW pedestrians here so skip past PED state
		else if (current_state4 == gr_4)
  8009b0:	d0a76317 	ldw	r2,-25204(gp)
  8009b4:	10800058 	cmpnei	r2,r2,1
  8009b8:	1000041e 	bne	r2,zero,8009cc <camera_tlc_timer_isr+0x190>
			current_state4 += 2;
  8009bc:	d0a76317 	ldw	r2,-25204(gp)
  8009c0:	10800084 	addi	r2,r2,2
  8009c4:	d0a76315 	stw	r2,-25204(gp)
  8009c8:	00001506 	br	800a20 <camera_tlc_timer_isr+0x1e4>
		else
			current_state4++;
  8009cc:	d0a76317 	ldw	r2,-25204(gp)
  8009d0:	10800044 	addi	r2,r2,1
  8009d4:	d0a76315 	stw	r2,-25204(gp)
  8009d8:	00001106 	br	800a20 <camera_tlc_timer_isr+0x1e4>
	}
	//if no PED interrupt flags, skip past PED states from GREEN-RED and RED-GREEN
	else if (current_state4 == gr_4)
  8009dc:	d0a76317 	ldw	r2,-25204(gp)
  8009e0:	10800058 	cmpnei	r2,r2,1
  8009e4:	1000041e 	bne	r2,zero,8009f8 <camera_tlc_timer_isr+0x1bc>
		current_state4 += 2;
  8009e8:	d0a76317 	ldw	r2,-25204(gp)
  8009ec:	10800084 	addi	r2,r2,2
  8009f0:	d0a76315 	stw	r2,-25204(gp)
  8009f4:	00000a06 	br	800a20 <camera_tlc_timer_isr+0x1e4>
	else if (current_state4 == rg_4)
  8009f8:	d0a76317 	ldw	r2,-25204(gp)
  8009fc:	10800158 	cmpnei	r2,r2,5
  800a00:	1000041e 	bne	r2,zero,800a14 <camera_tlc_timer_isr+0x1d8>
		current_state4 += 2;
  800a04:	d0a76317 	ldw	r2,-25204(gp)
  800a08:	10800084 	addi	r2,r2,2
  800a0c:	d0a76315 	stw	r2,-25204(gp)
  800a10:	00000306 	br	800a20 <camera_tlc_timer_isr+0x1e4>
	else
		current_state4++; //move to the next state if no
  800a14:	d0a76317 	ldw	r2,-25204(gp)
  800a18:	10800044 	addi	r2,r2,1
  800a1c:	d0a76315 	stw	r2,-25204(gp)

	//reset the NS/EW pedestrian button interrupt flag when we have changed state (NS/EWHandled = 1)
	if (previous_state4 == grp1_4) {
  800a20:	d0a76417 	ldw	r2,-25200(gp)
  800a24:	10800098 	cmpnei	r2,r2,2
  800a28:	1000021e 	bne	r2,zero,800a34 <camera_tlc_timer_isr+0x1f8>
		pedNS = 0;
  800a2c:	d0276515 	stw	zero,-25196(gp)
  800a30:	00000406 	br	800a44 <camera_tlc_timer_isr+0x208>
	}
	else if (previous_state4 == rgp2_4) {
  800a34:	d0a76417 	ldw	r2,-25200(gp)
  800a38:	10800198 	cmpnei	r2,r2,6
  800a3c:	1000011e 	bne	r2,zero,800a44 <camera_tlc_timer_isr+0x208>
		pedEW = 0;
  800a40:	d0276615 	stw	zero,-25192(gp)
	}

	if (current_state4 == buffer_4) //if at final state, loop back to initial state using buffer state
  800a44:	d0a76317 	ldw	r2,-25204(gp)
  800a48:	10800218 	cmpnei	r2,r2,8
  800a4c:	1000011e 	bne	r2,zero,800a54 <camera_tlc_timer_isr+0x218>
		current_state4 = rr1_4;
  800a50:	d0276315 	stw	zero,-25204(gp)
	printf("current state camera_timer %d\n", current_state4);
  800a54:	d0a76317 	ldw	r2,-25204(gp)
  800a58:	100b883a 	mov	r5,r2
  800a5c:	01002074 	movhi	r4,129
  800a60:	210f3404 	addi	r4,r4,15568
  800a64:	0803a6c0 	call	803a6c <printf>

	timer_has_started = 0; //reset timer_started flag
  800a68:	d0275a15 	stw	zero,-25240(gp)
return 0;
  800a6c:	0005883a 	mov	r2,zero
}
  800a70:	e037883a 	mov	sp,fp
  800a74:	dfc00117 	ldw	ra,4(sp)
  800a78:	df000017 	ldw	fp,0(sp)
  800a7c:	dec00204 	addi	sp,sp,8
  800a80:	f800283a 	ret

00800a84 <camera_timer_isr>:

alt_u32 camera_timer_isr(void* context){
  800a84:	defffd04 	addi	sp,sp,-12
  800a88:	dfc00215 	stw	ra,8(sp)
  800a8c:	df000115 	stw	fp,4(sp)
  800a90:	df000104 	addi	fp,sp,4
  800a94:	e13fff15 	stw	r4,-4(fp)
	fprintf(uart,"Snapshot taken\r\n");
  800a98:	d0a76a17 	ldw	r2,-25176(gp)
  800a9c:	100f883a 	mov	r7,r2
  800aa0:	01800404 	movi	r6,16
  800aa4:	01400044 	movi	r5,1
  800aa8:	01002074 	movhi	r4,129
  800aac:	210f3c04 	addi	r4,r4,15600
  800ab0:	0802e900 	call	802e90 <fwrite>
	camera_timer_has_started = 0;
  800ab4:	d0275b15 	stw	zero,-25236(gp)
	return 0;
  800ab8:	0005883a 	mov	r2,zero
}
  800abc:	e037883a 	mov	sp,fp
  800ac0:	dfc00117 	ldw	ra,4(sp)
  800ac4:	df000017 	ldw	fp,0(sp)
  800ac8:	dec00204 	addi	sp,sp,8
  800acc:	f800283a 	ret

00800ad0 <vehicle_timer_isr>:

alt_u32 vehicle_timer_isr(void* context){
  800ad0:	defffe04 	addi	sp,sp,-8
  800ad4:	df000115 	stw	fp,4(sp)
  800ad8:	df000104 	addi	fp,sp,4
  800adc:	e13fff15 	stw	r4,-4(fp)
	count++;
  800ae0:	d0a76817 	ldw	r2,-25184(gp)
  800ae4:	10800044 	addi	r2,r2,1
  800ae8:	d0a76815 	stw	r2,-25184(gp)
	return 1;
  800aec:	00800044 	movi	r2,1
}
  800af0:	e037883a 	mov	sp,fp
  800af4:	df000017 	ldw	fp,0(sp)
  800af8:	dec00104 	addi	sp,sp,4
  800afc:	f800283a 	ret

00800b00 <button_interrupt>:

//button interrupt function for pedestrian buttons and
void button_interrupt(void* context, alt_u32 id) {
  800b00:	defff904 	addi	sp,sp,-28
  800b04:	dfc00615 	stw	ra,24(sp)
  800b08:	df000515 	stw	fp,20(sp)
  800b0c:	df000504 	addi	fp,sp,20
  800b10:	e13ffe15 	stw	r4,-8(fp)
  800b14:	e17fff15 	stw	r5,-4(fp)
	//read edge capture register and button value
	unsigned int edgeCapture = IORD_ALTERA_AVALON_PIO_EDGE_CAP(BUTTONS_BASE);
  800b18:	00804434 	movhi	r2,272
  800b1c:	10842b04 	addi	r2,r2,4268
  800b20:	10800037 	ldwio	r2,0(r2)
  800b24:	e0bffb15 	stw	r2,-20(fp)
	unsigned int uiButtonsValue = IORD_ALTERA_AVALON_PIO_DATA(BUTTONS_BASE);
  800b28:	00804434 	movhi	r2,272
  800b2c:	10842804 	addi	r2,r2,4256
  800b30:	10800037 	ldwio	r2,0(r2)
  800b34:	e0bffc15 	stw	r2,-16(fp)
	void* timerContext = 0;
  800b38:	e03ffd15 	stw	zero,-12(fp)

	//only allows the pedestrian inputs in mode 2,3 and 4
	if ((!(uiButtonsValue & 1<<0)) && !((current_mode == 1) || (current_mode == 0)))
  800b3c:	e0bffc17 	ldw	r2,-16(fp)
  800b40:	1080004c 	andi	r2,r2,1
  800b44:	1000071e 	bne	r2,zero,800b64 <button_interrupt+0x64>
  800b48:	d0a00017 	ldw	r2,-32768(gp)
  800b4c:	10800060 	cmpeqi	r2,r2,1
  800b50:	1000041e 	bne	r2,zero,800b64 <button_interrupt+0x64>
  800b54:	d0a00017 	ldw	r2,-32768(gp)
  800b58:	10000226 	beq	r2,zero,800b64 <button_interrupt+0x64>
		pedNS = 1;
  800b5c:	00800044 	movi	r2,1
  800b60:	d0a76515 	stw	r2,-25196(gp)
	if ((!(uiButtonsValue & 1<<1)) && !((current_mode == 1) || (current_mode == 0)))
  800b64:	e0bffc17 	ldw	r2,-16(fp)
  800b68:	1080008c 	andi	r2,r2,2
  800b6c:	1000071e 	bne	r2,zero,800b8c <button_interrupt+0x8c>
  800b70:	d0a00017 	ldw	r2,-32768(gp)
  800b74:	10800060 	cmpeqi	r2,r2,1
  800b78:	1000041e 	bne	r2,zero,800b8c <button_interrupt+0x8c>
  800b7c:	d0a00017 	ldw	r2,-32768(gp)
  800b80:	10000226 	beq	r2,zero,800b8c <button_interrupt+0x8c>
		pedEW = 1;
  800b84:	00800044 	movi	r2,1
  800b88:	d0a76615 	stw	r2,-25192(gp)
	//vehicle crossing interrupt
	if (current_mode == 4){
  800b8c:	d0a00017 	ldw	r2,-32768(gp)
  800b90:	10800118 	cmpnei	r2,r2,4
  800b94:	1000531e 	bne	r2,zero,800ce4 <button_interrupt+0x1e4>
		if ((edgeCapture & 1<<2)) {
  800b98:	e0bffb17 	ldw	r2,-20(fp)
  800b9c:	1080010c 	andi	r2,r2,4
  800ba0:	10005026 	beq	r2,zero,800ce4 <button_interrupt+0x1e4>
			++vehicle_cross;
  800ba4:	d0a76717 	ldw	r2,-25188(gp)
  800ba8:	10800044 	addi	r2,r2,1
  800bac:	d0a76715 	stw	r2,-25188(gp)
			if (vehicle_cross % 2){
  800bb0:	d0a76717 	ldw	r2,-25188(gp)
  800bb4:	1080004c 	andi	r2,r2,1
  800bb8:	10003426 	beq	r2,zero,800c8c <button_interrupt+0x18c>
				alt_alarm_start(&timer_vehicle,1,vehicle_timer_isr,timerContext);
  800bbc:	e1fffd17 	ldw	r7,-12(fp)
  800bc0:	01802034 	movhi	r6,128
  800bc4:	3182b404 	addi	r6,r6,2768
  800bc8:	01400044 	movi	r5,1
  800bcc:	01002074 	movhi	r4,129
  800bd0:	211fa104 	addi	r4,r4,32388
  800bd4:	080f9d00 	call	80f9d0 <alt_alarm_start>
				if ((current_state4 == yr_4) || (current_state4 == ry_4)){
  800bd8:	d0a76317 	ldw	r2,-25204(gp)
  800bdc:	108000e0 	cmpeqi	r2,r2,3
  800be0:	1000031e 	bne	r2,zero,800bf0 <button_interrupt+0xf0>
  800be4:	d0a76317 	ldw	r2,-25204(gp)
  800be8:	108001d8 	cmpnei	r2,r2,7
  800bec:	1000131e 	bne	r2,zero,800c3c <button_interrupt+0x13c>
					//prevent crashes by checking if timer has already started
					if (!camera_timer_has_started){
  800bf0:	d0a75b17 	ldw	r2,-25236(gp)
  800bf4:	10003b1e 	bne	r2,zero,800ce4 <button_interrupt+0x1e4>
						fprintf(uart,"Camera activated\r\n");
  800bf8:	d0a76a17 	ldw	r2,-25176(gp)
  800bfc:	100f883a 	mov	r7,r2
  800c00:	01800484 	movi	r6,18
  800c04:	01400044 	movi	r5,1
  800c08:	01002074 	movhi	r4,129
  800c0c:	210f4104 	addi	r4,r4,15620
  800c10:	0802e900 	call	802e90 <fwrite>
						camera_timer_has_started = 1;
  800c14:	00800044 	movi	r2,1
  800c18:	d0a75b15 	stw	r2,-25236(gp)
						alt_alarm_start(&timer_camera,camera_timeout,camera_timer_isr,timerContext);
  800c1c:	e1fffd17 	ldw	r7,-12(fp)
  800c20:	01802034 	movhi	r6,128
  800c24:	3182a104 	addi	r6,r6,2692
  800c28:	0141f404 	movi	r5,2000
  800c2c:	01002074 	movhi	r4,129
  800c30:	211fa704 	addi	r4,r4,32412
  800c34:	080f9d00 	call	80f9d0 <alt_alarm_start>
			++vehicle_cross;
			if (vehicle_cross % 2){
				alt_alarm_start(&timer_vehicle,1,vehicle_timer_isr,timerContext);
				if ((current_state4 == yr_4) || (current_state4 == ry_4)){
					//prevent crashes by checking if timer has already started
					if (!camera_timer_has_started){
  800c38:	00002a06 	br	800ce4 <button_interrupt+0x1e4>
						fprintf(uart,"Camera activated\r\n");
						camera_timer_has_started = 1;
						alt_alarm_start(&timer_camera,camera_timeout,camera_timer_isr,timerContext);
					}
				}
				else if ((current_state4 == rr1_4) || (current_state4 == rr2_4)){
  800c3c:	d0a76317 	ldw	r2,-25204(gp)
  800c40:	10000326 	beq	r2,zero,800c50 <button_interrupt+0x150>
  800c44:	d0a76317 	ldw	r2,-25204(gp)
  800c48:	10800118 	cmpnei	r2,r2,4
  800c4c:	1000251e 	bne	r2,zero,800ce4 <button_interrupt+0x1e4>
					fprintf(uart,"Camera activated\r\n");
  800c50:	d0a76a17 	ldw	r2,-25176(gp)
  800c54:	100f883a 	mov	r7,r2
  800c58:	01800484 	movi	r6,18
  800c5c:	01400044 	movi	r5,1
  800c60:	01002074 	movhi	r4,129
  800c64:	210f4104 	addi	r4,r4,15620
  800c68:	0802e900 	call	802e90 <fwrite>
					fprintf(uart,"Snapshot taken\r\n");
  800c6c:	d0a76a17 	ldw	r2,-25176(gp)
  800c70:	100f883a 	mov	r7,r2
  800c74:	01800404 	movi	r6,16
  800c78:	01400044 	movi	r5,1
  800c7c:	01002074 	movhi	r4,129
  800c80:	210f3c04 	addi	r4,r4,15600
  800c84:	0802e900 	call	802e90 <fwrite>
  800c88:	00001606 	br	800ce4 <button_interrupt+0x1e4>
				}
			}
			else{
				alt_alarm_stop(&timer_camera);
  800c8c:	01002074 	movhi	r4,129
  800c90:	211fa704 	addi	r4,r4,32412
  800c94:	08106e00 	call	8106e0 <alt_alarm_stop>
				alt_alarm_stop(&timer_vehicle);
  800c98:	01002074 	movhi	r4,129
  800c9c:	211fa104 	addi	r4,r4,32388
  800ca0:	08106e00 	call	8106e0 <alt_alarm_stop>
				camera_timer_has_started = 0;
  800ca4:	d0275b15 	stw	zero,-25236(gp)
				fprintf(uart,"Vehicle left\r\n");
  800ca8:	d0a76a17 	ldw	r2,-25176(gp)
  800cac:	100f883a 	mov	r7,r2
  800cb0:	01800384 	movi	r6,14
  800cb4:	01400044 	movi	r5,1
  800cb8:	01002074 	movhi	r4,129
  800cbc:	210f4604 	addi	r4,r4,15640
  800cc0:	0802e900 	call	802e90 <fwrite>
				fprintf(uart,"Vehicle was in the intersection for %d ms.\r\n",count);
  800cc4:	d0a76a17 	ldw	r2,-25176(gp)
  800cc8:	d0e76817 	ldw	r3,-25184(gp)
  800ccc:	180d883a 	mov	r6,r3
  800cd0:	01402074 	movhi	r5,129
  800cd4:	294f4a04 	addi	r5,r5,15656
  800cd8:	1009883a 	mov	r4,r2
  800cdc:	080269c0 	call	80269c <fprintf>
				count = 0;
  800ce0:	d0276815 	stw	zero,-25184(gp)
			}
		}
	}
	IOWR_ALTERA_AVALON_PIO_EDGE_CAP(BUTTONS_BASE, 0);
  800ce4:	0007883a 	mov	r3,zero
  800ce8:	00804434 	movhi	r2,272
  800cec:	10842b04 	addi	r2,r2,4268
  800cf0:	10c00035 	stwio	r3,0(r2)
}
  800cf4:	0001883a 	nop
  800cf8:	e037883a 	mov	sp,fp
  800cfc:	dfc00117 	ldw	ra,4(sp)
  800d00:	df000017 	ldw	fp,0(sp)
  800d04:	dec00204 	addi	sp,sp,8
  800d08:	f800283a 	ret

00800d0c <lcd_set_mode>:

//LCD writing function, pass in the current mode
int lcd_set_mode(int mode){
  800d0c:	defffd04 	addi	sp,sp,-12
  800d10:	dfc00215 	stw	ra,8(sp)
  800d14:	df000115 	stw	fp,4(sp)
  800d18:	df000104 	addi	fp,sp,4
  800d1c:	e13fff15 	stw	r4,-4(fp)
	if (mode != mode_display) {
  800d20:	d0a00117 	ldw	r2,-32764(gp)
  800d24:	e0ffff17 	ldw	r3,-4(fp)
  800d28:	18801226 	beq	r3,r2,800d74 <lcd_set_mode+0x68>
		if(lcd != NULL){
  800d2c:	d0a76917 	ldw	r2,-25180(gp)
  800d30:	10001026 	beq	r2,zero,800d74 <lcd_set_mode+0x68>
			#define ESC 27
			#define CLEAR_LCD_STRING "[2J"
			fprintf(lcd, "%c%s", ESC, CLEAR_LCD_STRING);
  800d34:	d0a76917 	ldw	r2,-25180(gp)
  800d38:	01c02074 	movhi	r7,129
  800d3c:	39cf5604 	addi	r7,r7,15704
  800d40:	018006c4 	movi	r6,27
  800d44:	01402074 	movhi	r5,129
  800d48:	294f5704 	addi	r5,r5,15708
  800d4c:	1009883a 	mov	r4,r2
  800d50:	080269c0 	call	80269c <fprintf>
			fprintf(lcd, "CURRENT MODE: %d\n", mode);
  800d54:	d0a76917 	ldw	r2,-25180(gp)
  800d58:	e1bfff17 	ldw	r6,-4(fp)
  800d5c:	01402074 	movhi	r5,129
  800d60:	294f5904 	addi	r5,r5,15716
  800d64:	1009883a 	mov	r4,r2
  800d68:	080269c0 	call	80269c <fprintf>
			mode_display = mode; //set mode display state to prevent LCD flickering
  800d6c:	e0bfff17 	ldw	r2,-4(fp)
  800d70:	d0a00115 	stw	r2,-32764(gp)
		}
	}
	return 0;
  800d74:	0005883a 	mov	r2,zero
}
  800d78:	e037883a 	mov	sp,fp
  800d7c:	dfc00117 	ldw	ra,4(sp)
  800d80:	df000017 	ldw	fp,0(sp)
  800d84:	dec00204 	addi	sp,sp,8
  800d88:	f800283a 	ret

00800d8c <simple_tlc>:

// Mode 1
// Simple controller with automatic lights
int simple_tlc(){
  800d8c:	defffd04 	addi	sp,sp,-12
  800d90:	dfc00215 	stw	ra,8(sp)
  800d94:	df000115 	stw	fp,4(sp)
  800d98:	df000104 	addi	fp,sp,4
	void* timerContext = 0;
  800d9c:	e03fff15 	stw	zero,-4(fp)
	//loop through all states, starting timer on current state and setting outputs
	if (current_state1 == rr1_1){
  800da0:	d0a75d17 	ldw	r2,-25228(gp)
  800da4:	1000101e 	bne	r2,zero,800de8 <simple_tlc+0x5c>
		IOWR_ALTERA_AVALON_PIO_DATA(LEDS_GREEN_BASE, 0b100100); //turn RED-RED on
  800da8:	00c00904 	movi	r3,36
  800dac:	00804434 	movhi	r2,272
  800db0:	10841c04 	addi	r2,r2,4208
  800db4:	10c00035 	stwio	r3,0(r2)
		if (!(timer_has_started)){
  800db8:	d0a75a17 	ldw	r2,-25240(gp)
  800dbc:	1000681e 	bne	r2,zero,800f60 <simple_tlc+0x1d4>
			alt_alarm_start(&timer_simple, rrrr, simple_tlc_timer_isr, timerContext);
  800dc0:	e1ffff17 	ldw	r7,-4(fp)
  800dc4:	01802034 	movhi	r6,128
  800dc8:	3180c404 	addi	r6,r6,784
  800dcc:	01407d04 	movi	r5,500
  800dd0:	01002074 	movhi	r4,129
  800dd4:	211f9b04 	addi	r4,r4,32364
  800dd8:	080f9d00 	call	80f9d0 <alt_alarm_start>
			timer_has_started = 1;
  800ddc:	00800044 	movi	r2,1
  800de0:	d0a75a15 	stw	r2,-25240(gp)
  800de4:	00005e06 	br	800f60 <simple_tlc+0x1d4>
		}
	}
	else if (current_state1 == gr_1){
  800de8:	d0a75d17 	ldw	r2,-25228(gp)
  800dec:	10800058 	cmpnei	r2,r2,1
  800df0:	1000101e 	bne	r2,zero,800e34 <simple_tlc+0xa8>
		IOWR_ALTERA_AVALON_PIO_DATA(LEDS_GREEN_BASE, 0b100001); //turn GREEN-RED on
  800df4:	00c00844 	movi	r3,33
  800df8:	00804434 	movhi	r2,272
  800dfc:	10841c04 	addi	r2,r2,4208
  800e00:	10c00035 	stwio	r3,0(r2)
		if (!(timer_has_started)){
  800e04:	d0a75a17 	ldw	r2,-25240(gp)
  800e08:	1000551e 	bne	r2,zero,800f60 <simple_tlc+0x1d4>
			alt_alarm_start(&timer_simple, grrg, simple_tlc_timer_isr, timerContext);
  800e0c:	e1ffff17 	ldw	r7,-4(fp)
  800e10:	01802034 	movhi	r6,128
  800e14:	3180c404 	addi	r6,r6,784
  800e18:	0145dc04 	movi	r5,6000
  800e1c:	01002074 	movhi	r4,129
  800e20:	211f9b04 	addi	r4,r4,32364
  800e24:	080f9d00 	call	80f9d0 <alt_alarm_start>
			timer_has_started = 1;
  800e28:	00800044 	movi	r2,1
  800e2c:	d0a75a15 	stw	r2,-25240(gp)
  800e30:	00004b06 	br	800f60 <simple_tlc+0x1d4>
		}
	}
	else if (current_state1 == yr_1){
  800e34:	d0a75d17 	ldw	r2,-25228(gp)
  800e38:	10800098 	cmpnei	r2,r2,2
  800e3c:	1000101e 	bne	r2,zero,800e80 <simple_tlc+0xf4>
		IOWR_ALTERA_AVALON_PIO_DATA(LEDS_GREEN_BASE, 0b100010); //turn YELLOW-RED on
  800e40:	00c00884 	movi	r3,34
  800e44:	00804434 	movhi	r2,272
  800e48:	10841c04 	addi	r2,r2,4208
  800e4c:	10c00035 	stwio	r3,0(r2)
		if (!(timer_has_started)){
  800e50:	d0a75a17 	ldw	r2,-25240(gp)
  800e54:	1000421e 	bne	r2,zero,800f60 <simple_tlc+0x1d4>
			alt_alarm_start(&timer_simple, yrry, simple_tlc_timer_isr, timerContext);
  800e58:	e1ffff17 	ldw	r7,-4(fp)
  800e5c:	01802034 	movhi	r6,128
  800e60:	3180c404 	addi	r6,r6,784
  800e64:	0141f404 	movi	r5,2000
  800e68:	01002074 	movhi	r4,129
  800e6c:	211f9b04 	addi	r4,r4,32364
  800e70:	080f9d00 	call	80f9d0 <alt_alarm_start>
			timer_has_started = 1;
  800e74:	00800044 	movi	r2,1
  800e78:	d0a75a15 	stw	r2,-25240(gp)
  800e7c:	00003806 	br	800f60 <simple_tlc+0x1d4>
		}
	}
	else if (current_state1 == rr2_1){
  800e80:	d0a75d17 	ldw	r2,-25228(gp)
  800e84:	108000d8 	cmpnei	r2,r2,3
  800e88:	1000101e 	bne	r2,zero,800ecc <simple_tlc+0x140>
		IOWR_ALTERA_AVALON_PIO_DATA(LEDS_GREEN_BASE, 0b100100); //turn RED-RED on
  800e8c:	00c00904 	movi	r3,36
  800e90:	00804434 	movhi	r2,272
  800e94:	10841c04 	addi	r2,r2,4208
  800e98:	10c00035 	stwio	r3,0(r2)
		if (!(timer_has_started)){
  800e9c:	d0a75a17 	ldw	r2,-25240(gp)
  800ea0:	10002f1e 	bne	r2,zero,800f60 <simple_tlc+0x1d4>
			alt_alarm_start(&timer_simple, rrrr, simple_tlc_timer_isr, timerContext);
  800ea4:	e1ffff17 	ldw	r7,-4(fp)
  800ea8:	01802034 	movhi	r6,128
  800eac:	3180c404 	addi	r6,r6,784
  800eb0:	01407d04 	movi	r5,500
  800eb4:	01002074 	movhi	r4,129
  800eb8:	211f9b04 	addi	r4,r4,32364
  800ebc:	080f9d00 	call	80f9d0 <alt_alarm_start>
			timer_has_started = 1;
  800ec0:	00800044 	movi	r2,1
  800ec4:	d0a75a15 	stw	r2,-25240(gp)
  800ec8:	00002506 	br	800f60 <simple_tlc+0x1d4>
		}
	}
	else if (current_state1 == rg_1){
  800ecc:	d0a75d17 	ldw	r2,-25228(gp)
  800ed0:	10800118 	cmpnei	r2,r2,4
  800ed4:	1000101e 	bne	r2,zero,800f18 <simple_tlc+0x18c>
		IOWR_ALTERA_AVALON_PIO_DATA(LEDS_GREEN_BASE, 0b001100); //turn RED-GREEN on
  800ed8:	00c00304 	movi	r3,12
  800edc:	00804434 	movhi	r2,272
  800ee0:	10841c04 	addi	r2,r2,4208
  800ee4:	10c00035 	stwio	r3,0(r2)
		if (!(timer_has_started)){
  800ee8:	d0a75a17 	ldw	r2,-25240(gp)
  800eec:	10001c1e 	bne	r2,zero,800f60 <simple_tlc+0x1d4>
			alt_alarm_start(&timer_simple, grrg, simple_tlc_timer_isr, timerContext);
  800ef0:	e1ffff17 	ldw	r7,-4(fp)
  800ef4:	01802034 	movhi	r6,128
  800ef8:	3180c404 	addi	r6,r6,784
  800efc:	0145dc04 	movi	r5,6000
  800f00:	01002074 	movhi	r4,129
  800f04:	211f9b04 	addi	r4,r4,32364
  800f08:	080f9d00 	call	80f9d0 <alt_alarm_start>
			timer_has_started = 1;
  800f0c:	00800044 	movi	r2,1
  800f10:	d0a75a15 	stw	r2,-25240(gp)
  800f14:	00001206 	br	800f60 <simple_tlc+0x1d4>
		}
	}
	else if (current_state1 == ry_1){
  800f18:	d0a75d17 	ldw	r2,-25228(gp)
  800f1c:	10800158 	cmpnei	r2,r2,5
  800f20:	10000f1e 	bne	r2,zero,800f60 <simple_tlc+0x1d4>
		IOWR_ALTERA_AVALON_PIO_DATA(LEDS_GREEN_BASE, 0b010100); //turn RED-YELLOW on
  800f24:	00c00504 	movi	r3,20
  800f28:	00804434 	movhi	r2,272
  800f2c:	10841c04 	addi	r2,r2,4208
  800f30:	10c00035 	stwio	r3,0(r2)
		if (!(timer_has_started)){
  800f34:	d0a75a17 	ldw	r2,-25240(gp)
  800f38:	1000091e 	bne	r2,zero,800f60 <simple_tlc+0x1d4>
			alt_alarm_start(&timer_simple, yrry, simple_tlc_timer_isr, timerContext);
  800f3c:	e1ffff17 	ldw	r7,-4(fp)
  800f40:	01802034 	movhi	r6,128
  800f44:	3180c404 	addi	r6,r6,784
  800f48:	0141f404 	movi	r5,2000
  800f4c:	01002074 	movhi	r4,129
  800f50:	211f9b04 	addi	r4,r4,32364
  800f54:	080f9d00 	call	80f9d0 <alt_alarm_start>
			timer_has_started = 1;
  800f58:	00800044 	movi	r2,1
  800f5c:	d0a75a15 	stw	r2,-25240(gp)
		}
	}
	return 0;
  800f60:	0005883a 	mov	r2,zero
}
  800f64:	e037883a 	mov	sp,fp
  800f68:	dfc00117 	ldw	ra,4(sp)
  800f6c:	df000017 	ldw	fp,0(sp)
  800f70:	dec00204 	addi	sp,sp,8
  800f74:	f800283a 	ret

00800f78 <pedestrian_tlc>:

// Mode 2
// Allows Pedestrian Inputs
int pedestrian_tlc() {
  800f78:	defffd04 	addi	sp,sp,-12
  800f7c:	dfc00215 	stw	ra,8(sp)
  800f80:	df000115 	stw	fp,4(sp)
  800f84:	df000104 	addi	fp,sp,4
	void* timerContext = 0;
  800f88:	e03fff15 	stw	zero,-4(fp)
	//loop through all states, starting timer on current state and setting outputs
	if (current_state2 == rr1_2){
  800f8c:	d0a75f17 	ldw	r2,-25220(gp)
  800f90:	1000101e 	bne	r2,zero,800fd4 <pedestrian_tlc+0x5c>
		IOWR_ALTERA_AVALON_PIO_DATA(LEDS_GREEN_BASE, 0b00100100); //turn RED-RED on
  800f94:	00c00904 	movi	r3,36
  800f98:	00804434 	movhi	r2,272
  800f9c:	10841c04 	addi	r2,r2,4208
  800fa0:	10c00035 	stwio	r3,0(r2)
		if (!(timer_has_started)){
  800fa4:	d0a75a17 	ldw	r2,-25240(gp)
  800fa8:	10008e1e 	bne	r2,zero,8011e4 <pedestrian_tlc+0x26c>
			alt_alarm_start(&timer_simple, rrrr, pedestrian_tlc_timer_isr, timerContext);
  800fac:	e1ffff17 	ldw	r7,-4(fp)
  800fb0:	01802034 	movhi	r6,128
  800fb4:	3180e804 	addi	r6,r6,928
  800fb8:	01407d04 	movi	r5,500
  800fbc:	01002074 	movhi	r4,129
  800fc0:	211f9b04 	addi	r4,r4,32364
  800fc4:	080f9d00 	call	80f9d0 <alt_alarm_start>
			timer_has_started = 1;
  800fc8:	00800044 	movi	r2,1
  800fcc:	d0a75a15 	stw	r2,-25240(gp)
  800fd0:	00008406 	br	8011e4 <pedestrian_tlc+0x26c>
		}
	}
	else if (current_state2 == gr_2){
  800fd4:	d0a75f17 	ldw	r2,-25220(gp)
  800fd8:	10800058 	cmpnei	r2,r2,1
  800fdc:	1000101e 	bne	r2,zero,801020 <pedestrian_tlc+0xa8>
		IOWR_ALTERA_AVALON_PIO_DATA(LEDS_GREEN_BASE, 0b00100001); //turn GREEN-RED on
  800fe0:	00c00844 	movi	r3,33
  800fe4:	00804434 	movhi	r2,272
  800fe8:	10841c04 	addi	r2,r2,4208
  800fec:	10c00035 	stwio	r3,0(r2)
		if (!(timer_has_started)){
  800ff0:	d0a75a17 	ldw	r2,-25240(gp)
  800ff4:	10007b1e 	bne	r2,zero,8011e4 <pedestrian_tlc+0x26c>
			alt_alarm_start(&timer_simple, grrg, pedestrian_tlc_timer_isr, timerContext);
  800ff8:	e1ffff17 	ldw	r7,-4(fp)
  800ffc:	01802034 	movhi	r6,128
  801000:	3180e804 	addi	r6,r6,928
  801004:	0145dc04 	movi	r5,6000
  801008:	01002074 	movhi	r4,129
  80100c:	211f9b04 	addi	r4,r4,32364
  801010:	080f9d00 	call	80f9d0 <alt_alarm_start>
			timer_has_started = 1;
  801014:	00800044 	movi	r2,1
  801018:	d0a75a15 	stw	r2,-25240(gp)
  80101c:	00007106 	br	8011e4 <pedestrian_tlc+0x26c>
		}
	}
	else if (current_state2 == grp1_2){
  801020:	d0a75f17 	ldw	r2,-25220(gp)
  801024:	10800098 	cmpnei	r2,r2,2
  801028:	1000101e 	bne	r2,zero,80106c <pedestrian_tlc+0xf4>
			IOWR_ALTERA_AVALON_PIO_DATA(LEDS_GREEN_BASE, 0b01100001); //turn GREEN-RED and PEDNS on
  80102c:	00c01844 	movi	r3,97
  801030:	00804434 	movhi	r2,272
  801034:	10841c04 	addi	r2,r2,4208
  801038:	10c00035 	stwio	r3,0(r2)
			if (!(timer_has_started)){
  80103c:	d0a75a17 	ldw	r2,-25240(gp)
  801040:	1000681e 	bne	r2,zero,8011e4 <pedestrian_tlc+0x26c>
				alt_alarm_start(&timer_simple, grrg, pedestrian_tlc_timer_isr, timerContext);
  801044:	e1ffff17 	ldw	r7,-4(fp)
  801048:	01802034 	movhi	r6,128
  80104c:	3180e804 	addi	r6,r6,928
  801050:	0145dc04 	movi	r5,6000
  801054:	01002074 	movhi	r4,129
  801058:	211f9b04 	addi	r4,r4,32364
  80105c:	080f9d00 	call	80f9d0 <alt_alarm_start>
				timer_has_started = 1;
  801060:	00800044 	movi	r2,1
  801064:	d0a75a15 	stw	r2,-25240(gp)
  801068:	00005e06 	br	8011e4 <pedestrian_tlc+0x26c>
			}
	}
	else if (current_state2 == yr_2){
  80106c:	d0a75f17 	ldw	r2,-25220(gp)
  801070:	108000d8 	cmpnei	r2,r2,3
  801074:	1000101e 	bne	r2,zero,8010b8 <pedestrian_tlc+0x140>
		IOWR_ALTERA_AVALON_PIO_DATA(LEDS_GREEN_BASE, 0b00100010); //turn YELLOW-RED on
  801078:	00c00884 	movi	r3,34
  80107c:	00804434 	movhi	r2,272
  801080:	10841c04 	addi	r2,r2,4208
  801084:	10c00035 	stwio	r3,0(r2)
		if (!(timer_has_started)){
  801088:	d0a75a17 	ldw	r2,-25240(gp)
  80108c:	1000551e 	bne	r2,zero,8011e4 <pedestrian_tlc+0x26c>
			alt_alarm_start(&timer_simple, yrry, pedestrian_tlc_timer_isr, timerContext);
  801090:	e1ffff17 	ldw	r7,-4(fp)
  801094:	01802034 	movhi	r6,128
  801098:	3180e804 	addi	r6,r6,928
  80109c:	0141f404 	movi	r5,2000
  8010a0:	01002074 	movhi	r4,129
  8010a4:	211f9b04 	addi	r4,r4,32364
  8010a8:	080f9d00 	call	80f9d0 <alt_alarm_start>
			timer_has_started = 1;
  8010ac:	00800044 	movi	r2,1
  8010b0:	d0a75a15 	stw	r2,-25240(gp)
  8010b4:	00004b06 	br	8011e4 <pedestrian_tlc+0x26c>
		}
	}
	else if (current_state2 == rr2_2){
  8010b8:	d0a75f17 	ldw	r2,-25220(gp)
  8010bc:	10800118 	cmpnei	r2,r2,4
  8010c0:	1000101e 	bne	r2,zero,801104 <pedestrian_tlc+0x18c>
		IOWR_ALTERA_AVALON_PIO_DATA(LEDS_GREEN_BASE, 0b00100100); //turn RED-RED on
  8010c4:	00c00904 	movi	r3,36
  8010c8:	00804434 	movhi	r2,272
  8010cc:	10841c04 	addi	r2,r2,4208
  8010d0:	10c00035 	stwio	r3,0(r2)
		if (!(timer_has_started)){
  8010d4:	d0a75a17 	ldw	r2,-25240(gp)
  8010d8:	1000421e 	bne	r2,zero,8011e4 <pedestrian_tlc+0x26c>
			alt_alarm_start(&timer_simple, rrrr, pedestrian_tlc_timer_isr, timerContext);
  8010dc:	e1ffff17 	ldw	r7,-4(fp)
  8010e0:	01802034 	movhi	r6,128
  8010e4:	3180e804 	addi	r6,r6,928
  8010e8:	01407d04 	movi	r5,500
  8010ec:	01002074 	movhi	r4,129
  8010f0:	211f9b04 	addi	r4,r4,32364
  8010f4:	080f9d00 	call	80f9d0 <alt_alarm_start>
			timer_has_started = 1;
  8010f8:	00800044 	movi	r2,1
  8010fc:	d0a75a15 	stw	r2,-25240(gp)
  801100:	00003806 	br	8011e4 <pedestrian_tlc+0x26c>
		}
	}
	else if (current_state2 == rg_2){
  801104:	d0a75f17 	ldw	r2,-25220(gp)
  801108:	10800158 	cmpnei	r2,r2,5
  80110c:	1000101e 	bne	r2,zero,801150 <pedestrian_tlc+0x1d8>
		IOWR_ALTERA_AVALON_PIO_DATA(LEDS_GREEN_BASE, 0b00001100); //turn RED-GREEN on
  801110:	00c00304 	movi	r3,12
  801114:	00804434 	movhi	r2,272
  801118:	10841c04 	addi	r2,r2,4208
  80111c:	10c00035 	stwio	r3,0(r2)
		if (!(timer_has_started)){
  801120:	d0a75a17 	ldw	r2,-25240(gp)
  801124:	10002f1e 	bne	r2,zero,8011e4 <pedestrian_tlc+0x26c>
			alt_alarm_start(&timer_simple, grrg, pedestrian_tlc_timer_isr, timerContext);
  801128:	e1ffff17 	ldw	r7,-4(fp)
  80112c:	01802034 	movhi	r6,128
  801130:	3180e804 	addi	r6,r6,928
  801134:	0145dc04 	movi	r5,6000
  801138:	01002074 	movhi	r4,129
  80113c:	211f9b04 	addi	r4,r4,32364
  801140:	080f9d00 	call	80f9d0 <alt_alarm_start>
			timer_has_started = 1;
  801144:	00800044 	movi	r2,1
  801148:	d0a75a15 	stw	r2,-25240(gp)
  80114c:	00002506 	br	8011e4 <pedestrian_tlc+0x26c>
		}
	}
	else if (current_state2 == rgp2_2){
  801150:	d0a75f17 	ldw	r2,-25220(gp)
  801154:	10800198 	cmpnei	r2,r2,6
  801158:	1000101e 	bne	r2,zero,80119c <pedestrian_tlc+0x224>
		IOWR_ALTERA_AVALON_PIO_DATA(LEDS_GREEN_BASE, 0b10001100); //turn RED-GREEN and PEDEW on
  80115c:	00c02304 	movi	r3,140
  801160:	00804434 	movhi	r2,272
  801164:	10841c04 	addi	r2,r2,4208
  801168:	10c00035 	stwio	r3,0(r2)
		if (!(timer_has_started)){
  80116c:	d0a75a17 	ldw	r2,-25240(gp)
  801170:	10001c1e 	bne	r2,zero,8011e4 <pedestrian_tlc+0x26c>
			alt_alarm_start(&timer_simple, grrg, pedestrian_tlc_timer_isr, timerContext);
  801174:	e1ffff17 	ldw	r7,-4(fp)
  801178:	01802034 	movhi	r6,128
  80117c:	3180e804 	addi	r6,r6,928
  801180:	0145dc04 	movi	r5,6000
  801184:	01002074 	movhi	r4,129
  801188:	211f9b04 	addi	r4,r4,32364
  80118c:	080f9d00 	call	80f9d0 <alt_alarm_start>
			timer_has_started = 1;
  801190:	00800044 	movi	r2,1
  801194:	d0a75a15 	stw	r2,-25240(gp)
  801198:	00001206 	br	8011e4 <pedestrian_tlc+0x26c>
		}
	}
	else if (current_state2 == ry_2){
  80119c:	d0a75f17 	ldw	r2,-25220(gp)
  8011a0:	108001d8 	cmpnei	r2,r2,7
  8011a4:	10000f1e 	bne	r2,zero,8011e4 <pedestrian_tlc+0x26c>
		IOWR_ALTERA_AVALON_PIO_DATA(LEDS_GREEN_BASE, 0b00010100); //turn RED-YELLOW on
  8011a8:	00c00504 	movi	r3,20
  8011ac:	00804434 	movhi	r2,272
  8011b0:	10841c04 	addi	r2,r2,4208
  8011b4:	10c00035 	stwio	r3,0(r2)
		if (!(timer_has_started)){
  8011b8:	d0a75a17 	ldw	r2,-25240(gp)
  8011bc:	1000091e 	bne	r2,zero,8011e4 <pedestrian_tlc+0x26c>
			alt_alarm_start(&timer_simple, yrry, pedestrian_tlc_timer_isr, timerContext);
  8011c0:	e1ffff17 	ldw	r7,-4(fp)
  8011c4:	01802034 	movhi	r6,128
  8011c8:	3180e804 	addi	r6,r6,928
  8011cc:	0141f404 	movi	r5,2000
  8011d0:	01002074 	movhi	r4,129
  8011d4:	211f9b04 	addi	r4,r4,32364
  8011d8:	080f9d00 	call	80f9d0 <alt_alarm_start>
			timer_has_started = 1;
  8011dc:	00800044 	movi	r2,1
  8011e0:	d0a75a15 	stw	r2,-25240(gp)
		}
	}
	return 0;
  8011e4:	0005883a 	mov	r2,zero
}
  8011e8:	e037883a 	mov	sp,fp
  8011ec:	dfc00117 	ldw	ra,4(sp)
  8011f0:	df000017 	ldw	fp,0(sp)
  8011f4:	dec00204 	addi	sp,sp,8
  8011f8:	f800283a 	ret

008011fc <configurable_tlc>:

// Mode 3
// Allows the timer to be change in PuTTY
int configurable_tlc(){
  8011fc:	deffea04 	addi	sp,sp,-88
  801200:	dfc01515 	stw	ra,84(sp)
  801204:	df001415 	stw	fp,80(sp)
  801208:	dc001315 	stw	r16,76(sp)
  80120c:	df001404 	addi	fp,sp,80
	void* timerContext = 0;
  801210:	e03ff215 	stw	zero,-56(fp)
	unsigned int switch_value = IORD_ALTERA_AVALON_PIO_DATA(SWITCHES_BASE);
  801214:	00804434 	movhi	r2,272
  801218:	10842404 	addi	r2,r2,4240
  80121c:	10800037 	ldwio	r2,0(r2)
  801220:	e0bff315 	stw	r2,-52(fp)

	//loop through all states, starting timer on current state and setting outputs
	if (current_state3 == rr1_3){
  801224:	d0a76117 	ldw	r2,-25212(gp)
  801228:	1000ed1e 	bne	r2,zero,8015e0 <configurable_tlc+0x3e4>
		IOWR_ALTERA_AVALON_PIO_DATA(LEDS_GREEN_BASE, 0b00100100); //turn RED-RED on
  80122c:	00c00904 	movi	r3,36
  801230:	00804434 	movhi	r2,272
  801234:	10841c04 	addi	r2,r2,4208
  801238:	10c00035 	stwio	r3,0(r2)
		//check switch value to see if there are new timer values
		switch_value = IORD_ALTERA_AVALON_PIO_DATA(SWITCHES_BASE);
  80123c:	00804434 	movhi	r2,272
  801240:	10842404 	addi	r2,r2,4240
  801244:	10800037 	ldwio	r2,0(r2)
  801248:	e0bff315 	stw	r2,-52(fp)

		if (switch_value & (1<<17)){
  80124c:	e0bff317 	ldw	r2,-52(fp)
  801250:	108000ac 	andhi	r2,r2,2
  801254:	1000d526 	beq	r2,zero,8015ac <configurable_tlc+0x3b0>
			fprintf(uart,"Configuration mode, disable switch 17 then input new timeout values:\r\n");
  801258:	d0a76a17 	ldw	r2,-25176(gp)
  80125c:	100f883a 	mov	r7,r2
  801260:	01801184 	movi	r6,70
  801264:	01400044 	movi	r5,1
  801268:	01002074 	movhi	r4,129
  80126c:	210f5e04 	addi	r4,r4,15736
  801270:	0802e900 	call	802e90 <fwrite>
			//if switch 17 indicates configuration mode, block until complete valid string is received
			unsigned int strcomplete = 0;
  801274:	e03fec15 	stw	zero,-80(fp)
			unsigned int i = 0; //index for string retrieved from UART
  801278:	e03fed15 	stw	zero,-76(fp)
			char **splitstrings; //pointer to array of c-strings
			int numbers[10]; //array to store timeout values received from UART

			//allocate enough memory for array of c-strings
			splitstrings = (char**)malloc(10);
  80127c:	01000284 	movi	r4,10
  801280:	08030800 	call	803080 <malloc>
  801284:	e0bff415 	stw	r2,-48(fp)
			//allocate enough memory for each c-string in array
			for (int j = 0; j < sizeof(splitstrings); ++j) {
  801288:	e03fee15 	stw	zero,-72(fp)
  80128c:	00000c06 	br	8012c0 <configurable_tlc+0xc4>
				splitstrings[j] = (char*)malloc(10);
  801290:	e0bfee17 	ldw	r2,-72(fp)
  801294:	1085883a 	add	r2,r2,r2
  801298:	1085883a 	add	r2,r2,r2
  80129c:	1007883a 	mov	r3,r2
  8012a0:	e0bff417 	ldw	r2,-48(fp)
  8012a4:	10e1883a 	add	r16,r2,r3
  8012a8:	01000284 	movi	r4,10
  8012ac:	08030800 	call	803080 <malloc>
  8012b0:	80800015 	stw	r2,0(r16)
			int numbers[10]; //array to store timeout values received from UART

			//allocate enough memory for array of c-strings
			splitstrings = (char**)malloc(10);
			//allocate enough memory for each c-string in array
			for (int j = 0; j < sizeof(splitstrings); ++j) {
  8012b4:	e0bfee17 	ldw	r2,-72(fp)
  8012b8:	10800044 	addi	r2,r2,1
  8012bc:	e0bfee15 	stw	r2,-72(fp)
  8012c0:	e0bfee17 	ldw	r2,-72(fp)
  8012c4:	10800130 	cmpltui	r2,r2,4
  8012c8:	103ff11e 	bne	r2,zero,801290 <__alt_mem_onchip_mem+0xff781290>
				splitstrings[j] = (char*)malloc(10);
			}
			//block code and get input from UART stream
			while (strcomplete == 0){
  8012cc:	0000a906 	br	801574 <configurable_tlc+0x378>
				config_values[i] = fgetc(uart);
  8012d0:	d0a76a17 	ldw	r2,-25176(gp)
  8012d4:	1009883a 	mov	r4,r2
  8012d8:	08021400 	call	802140 <fgetc>
  8012dc:	1009883a 	mov	r4,r2
  8012e0:	00802074 	movhi	r2,129
  8012e4:	109fad04 	addi	r2,r2,32436
  8012e8:	e0ffed17 	ldw	r3,-76(fp)
  8012ec:	10c5883a 	add	r2,r2,r3
  8012f0:	11000005 	stb	r4,0(r2)
				//echo back to both UART and console
				printf("%c",config_values[i]);
  8012f4:	00802074 	movhi	r2,129
  8012f8:	109fad04 	addi	r2,r2,32436
  8012fc:	e0ffed17 	ldw	r3,-76(fp)
  801300:	10c5883a 	add	r2,r2,r3
  801304:	10800003 	ldbu	r2,0(r2)
  801308:	10803fcc 	andi	r2,r2,255
  80130c:	1080201c 	xori	r2,r2,128
  801310:	10bfe004 	addi	r2,r2,-128
  801314:	1009883a 	mov	r4,r2
  801318:	0803c180 	call	803c18 <putchar>
				fprintf(uart,"%c",config_values[i]);
  80131c:	d1276a17 	ldw	r4,-25176(gp)
  801320:	00802074 	movhi	r2,129
  801324:	109fad04 	addi	r2,r2,32436
  801328:	e0ffed17 	ldw	r3,-76(fp)
  80132c:	10c5883a 	add	r2,r2,r3
  801330:	10800003 	ldbu	r2,0(r2)
  801334:	10803fcc 	andi	r2,r2,255
  801338:	1080201c 	xori	r2,r2,128
  80133c:	10bfe004 	addi	r2,r2,-128
  801340:	200b883a 	mov	r5,r4
  801344:	1009883a 	mov	r4,r2
  801348:	08027040 	call	802704 <fputc>
				++i;
  80134c:	e0bfed17 	ldw	r2,-76(fp)
  801350:	10800044 	addi	r2,r2,1
  801354:	e0bfed15 	stw	r2,-76(fp)
				if (config_values[i-1] == '\n'){
  801358:	e0bfed17 	ldw	r2,-76(fp)
  80135c:	10ffffc4 	addi	r3,r2,-1
  801360:	00802074 	movhi	r2,129
  801364:	109fad04 	addi	r2,r2,32436
  801368:	10c5883a 	add	r2,r2,r3
  80136c:	10800003 	ldbu	r2,0(r2)
  801370:	10803fcc 	andi	r2,r2,255
  801374:	1080201c 	xori	r2,r2,128
  801378:	10bfe004 	addi	r2,r2,-128
  80137c:	10800298 	cmpnei	r2,r2,10
  801380:	10007c1e 	bne	r2,zero,801574 <configurable_tlc+0x378>

					//add NULL to end of string to indicate end of string
					config_values[i] = '\0';
  801384:	00802074 	movhi	r2,129
  801388:	109fad04 	addi	r2,r2,32436
  80138c:	e0ffed17 	ldw	r3,-76(fp)
  801390:	10c5883a 	add	r2,r2,r3
  801394:	10000005 	stb	zero,0(r2)
					//move iterator to position 0 (effectively flushing the buffer)
					i = 0;
  801398:	e03fed15 	stw	zero,-76(fp)
					unsigned int k = 1; //iterator for array of c-strings
  80139c:	00800044 	movi	r2,1
  8013a0:	e0bfef15 	stw	r2,-68(fp)

					//use strtok to split the UART string into separate strings from between the commas
					splitstrings[0] = strtok(config_values,comma);
  8013a4:	d1600204 	addi	r5,gp,-32760
  8013a8:	01002074 	movhi	r4,129
  8013ac:	211fad04 	addi	r4,r4,32436
  8013b0:	08040380 	call	804038 <strtok>
  8013b4:	1007883a 	mov	r3,r2
  8013b8:	e0bff417 	ldw	r2,-48(fp)
  8013bc:	10c00015 	stw	r3,0(r2)
					while (splitstrings[k-1] != NULL) {
  8013c0:	00000d06 	br	8013f8 <configurable_tlc+0x1fc>
							splitstrings[k] = strtok(NULL, comma);
  8013c4:	e0bfef17 	ldw	r2,-68(fp)
  8013c8:	1085883a 	add	r2,r2,r2
  8013cc:	1085883a 	add	r2,r2,r2
  8013d0:	1007883a 	mov	r3,r2
  8013d4:	e0bff417 	ldw	r2,-48(fp)
  8013d8:	10e1883a 	add	r16,r2,r3
  8013dc:	d1600204 	addi	r5,gp,-32760
  8013e0:	0009883a 	mov	r4,zero
  8013e4:	08040380 	call	804038 <strtok>
  8013e8:	80800015 	stw	r2,0(r16)
							++k;
  8013ec:	e0bfef17 	ldw	r2,-68(fp)
  8013f0:	10800044 	addi	r2,r2,1
  8013f4:	e0bfef15 	stw	r2,-68(fp)
					i = 0;
					unsigned int k = 1; //iterator for array of c-strings

					//use strtok to split the UART string into separate strings from between the commas
					splitstrings[0] = strtok(config_values,comma);
					while (splitstrings[k-1] != NULL) {
  8013f8:	e0ffef17 	ldw	r3,-68(fp)
  8013fc:	00900034 	movhi	r2,16384
  801400:	10bfffc4 	addi	r2,r2,-1
  801404:	1885883a 	add	r2,r3,r2
  801408:	1085883a 	add	r2,r2,r2
  80140c:	1085883a 	add	r2,r2,r2
  801410:	1007883a 	mov	r3,r2
  801414:	e0bff417 	ldw	r2,-48(fp)
  801418:	10c5883a 	add	r2,r2,r3
  80141c:	10800017 	ldw	r2,0(r2)
  801420:	103fe81e 	bne	r2,zero,8013c4 <__alt_mem_onchip_mem+0xff7813c4>
							splitstrings[k] = strtok(NULL, comma);
							++k;
					}

					k = 0; //reset iterator for array of c-strings
  801424:	e03fef15 	stw	zero,-68(fp)
					//do base-10 conversion of split strings to integers using strtol
					//this returns 0 for an invalid integer, so we are assuming a 0ms timeout is invalid
					while (splitstrings[k] != NULL){
  801428:	00001606 	br	801484 <configurable_tlc+0x288>
						numbers[k] = strtol(splitstrings[k],NULL,10);
  80142c:	e0bfef17 	ldw	r2,-68(fp)
  801430:	1085883a 	add	r2,r2,r2
  801434:	1085883a 	add	r2,r2,r2
  801438:	1007883a 	mov	r3,r2
  80143c:	e0bff417 	ldw	r2,-48(fp)
  801440:	10c5883a 	add	r2,r2,r3
  801444:	10800017 	ldw	r2,0(r2)
  801448:	01800284 	movi	r6,10
  80144c:	000b883a 	mov	r5,zero
  801450:	1009883a 	mov	r4,r2
  801454:	080432c0 	call	80432c <strtol>
  801458:	1007883a 	mov	r3,r2
  80145c:	e0bfef17 	ldw	r2,-68(fp)
  801460:	1085883a 	add	r2,r2,r2
  801464:	1085883a 	add	r2,r2,r2
  801468:	e13fec04 	addi	r4,fp,-80
  80146c:	2085883a 	add	r2,r4,r2
  801470:	10800904 	addi	r2,r2,36
  801474:	10c00015 	stw	r3,0(r2)
						++k;
  801478:	e0bfef17 	ldw	r2,-68(fp)
  80147c:	10800044 	addi	r2,r2,1
  801480:	e0bfef15 	stw	r2,-68(fp)
					}

					k = 0; //reset iterator for array of c-strings
					//do base-10 conversion of split strings to integers using strtol
					//this returns 0 for an invalid integer, so we are assuming a 0ms timeout is invalid
					while (splitstrings[k] != NULL){
  801484:	e0bfef17 	ldw	r2,-68(fp)
  801488:	1085883a 	add	r2,r2,r2
  80148c:	1085883a 	add	r2,r2,r2
  801490:	1007883a 	mov	r3,r2
  801494:	e0bff417 	ldw	r2,-48(fp)
  801498:	10c5883a 	add	r2,r2,r3
  80149c:	10800017 	ldw	r2,0(r2)
  8014a0:	103fe21e 	bne	r2,zero,80142c <__alt_mem_onchip_mem+0xff78142c>
						numbers[k] = strtol(splitstrings[k],NULL,10);
						++k;
					}

					if (k == 6){
  8014a4:	e0bfef17 	ldw	r2,-68(fp)
  8014a8:	10800198 	cmpnei	r2,r2,6
  8014ac:	10002a1e 	bne	r2,zero,801558 <configurable_tlc+0x35c>
						unsigned int notinrange = 0;
  8014b0:	e03ff015 	stw	zero,-64(fp)
						for (int j = 0; j < 6; ++j){
  8014b4:	e03ff115 	stw	zero,-60(fp)
  8014b8:	00001706 	br	801518 <configurable_tlc+0x31c>
							if ((numbers[j] <= 0) || (numbers[j] > 9999)){
  8014bc:	e0bff117 	ldw	r2,-60(fp)
  8014c0:	1085883a 	add	r2,r2,r2
  8014c4:	1085883a 	add	r2,r2,r2
  8014c8:	e0ffec04 	addi	r3,fp,-80
  8014cc:	1885883a 	add	r2,r3,r2
  8014d0:	10800904 	addi	r2,r2,36
  8014d4:	10800017 	ldw	r2,0(r2)
  8014d8:	0080090e 	bge	zero,r2,801500 <configurable_tlc+0x304>
  8014dc:	e0bff117 	ldw	r2,-60(fp)
  8014e0:	1085883a 	add	r2,r2,r2
  8014e4:	1085883a 	add	r2,r2,r2
  8014e8:	e13fec04 	addi	r4,fp,-80
  8014ec:	2085883a 	add	r2,r4,r2
  8014f0:	10800904 	addi	r2,r2,36
  8014f4:	10800017 	ldw	r2,0(r2)
  8014f8:	1089c410 	cmplti	r2,r2,10000
  8014fc:	1000031e 	bne	r2,zero,80150c <configurable_tlc+0x310>
								notinrange = 1;
  801500:	00800044 	movi	r2,1
  801504:	e0bff015 	stw	r2,-64(fp)
								break;
  801508:	00000606 	br	801524 <configurable_tlc+0x328>
						++k;
					}

					if (k == 6){
						unsigned int notinrange = 0;
						for (int j = 0; j < 6; ++j){
  80150c:	e0bff117 	ldw	r2,-60(fp)
  801510:	10800044 	addi	r2,r2,1
  801514:	e0bff115 	stw	r2,-60(fp)
  801518:	e0bff117 	ldw	r2,-60(fp)
  80151c:	10800190 	cmplti	r2,r2,6
  801520:	103fe61e 	bne	r2,zero,8014bc <__alt_mem_onchip_mem+0xff7814bc>
							if ((numbers[j] <= 0) || (numbers[j] > 9999)){
								notinrange = 1;
								break;
							}
						}
						if (!(notinrange)){
  801524:	e0bff017 	ldw	r2,-64(fp)
  801528:	1000031e 	bne	r2,zero,801538 <configurable_tlc+0x33c>
							strcomplete = 1;
  80152c:	00800044 	movi	r2,1
  801530:	e0bfec15 	stw	r2,-80(fp)
  801534:	00000f06 	br	801574 <configurable_tlc+0x378>
						}
						else{
							fprintf(uart,"Invalid input, please re-enter numbers:\r\n");
  801538:	d0a76a17 	ldw	r2,-25176(gp)
  80153c:	100f883a 	mov	r7,r2
  801540:	01800a44 	movi	r6,41
  801544:	01400044 	movi	r5,1
  801548:	01002074 	movhi	r4,129
  80154c:	210f7004 	addi	r4,r4,15808
  801550:	0802e900 	call	802e90 <fwrite>
  801554:	00000706 	br	801574 <configurable_tlc+0x378>
						}
					}
					else{
						fprintf(uart,"Not enough numbers input, please re-enter numbers:\r\n");
  801558:	d0a76a17 	ldw	r2,-25176(gp)
  80155c:	100f883a 	mov	r7,r2
  801560:	01800d04 	movi	r6,52
  801564:	01400044 	movi	r5,1
  801568:	01002074 	movhi	r4,129
  80156c:	210f7b04 	addi	r4,r4,15852
  801570:	0802e900 	call	802e90 <fwrite>
			//allocate enough memory for each c-string in array
			for (int j = 0; j < sizeof(splitstrings); ++j) {
				splitstrings[j] = (char*)malloc(10);
			}
			//block code and get input from UART stream
			while (strcomplete == 0){
  801574:	e0bfec17 	ldw	r2,-80(fp)
  801578:	103f5526 	beq	r2,zero,8012d0 <__alt_mem_onchip_mem+0xff7812d0>
						fprintf(uart,"Not enough numbers input, please re-enter numbers:\r\n");
					}
				}
			}
			//since numbers have been discovered to be valid, assign them to the timer controlling variables
			t1 = numbers[0];
  80157c:	e0bff517 	ldw	r2,-44(fp)
  801580:	d0a00315 	stw	r2,-32756(gp)
			t2 = numbers[1];
  801584:	e0bff617 	ldw	r2,-40(fp)
  801588:	d0a00415 	stw	r2,-32752(gp)
			t3 = numbers[2];
  80158c:	e0bff717 	ldw	r2,-36(fp)
  801590:	d0a00515 	stw	r2,-32748(gp)
			t4 = numbers[3];
  801594:	e0bff817 	ldw	r2,-32(fp)
  801598:	d0a00615 	stw	r2,-32744(gp)
			t5 = numbers[4];
  80159c:	e0bff917 	ldw	r2,-28(fp)
  8015a0:	d0a00715 	stw	r2,-32740(gp)
			t6 = numbers[5];
  8015a4:	e0bffa17 	ldw	r2,-24(fp)
  8015a8:	d0a00815 	stw	r2,-32736(gp)
		}
		if (!(timer_has_started)){
  8015ac:	d0a75a17 	ldw	r2,-25240(gp)
  8015b0:	1000961e 	bne	r2,zero,80180c <configurable_tlc+0x610>
			alt_alarm_start(&timer_simple, t1, configurable_tlc_timer_isr, timerContext);
  8015b4:	d0a00317 	ldw	r2,-32756(gp)
  8015b8:	e1fff217 	ldw	r7,-56(fp)
  8015bc:	01802034 	movhi	r6,128
  8015c0:	31817d04 	addi	r6,r6,1524
  8015c4:	100b883a 	mov	r5,r2
  8015c8:	01002074 	movhi	r4,129
  8015cc:	211f9b04 	addi	r4,r4,32364
  8015d0:	080f9d00 	call	80f9d0 <alt_alarm_start>
			timer_has_started = 1;
  8015d4:	00800044 	movi	r2,1
  8015d8:	d0a75a15 	stw	r2,-25240(gp)
  8015dc:	00008b06 	br	80180c <configurable_tlc+0x610>
		}
	}
	else if (current_state3 == gr_3){
  8015e0:	d0a76117 	ldw	r2,-25212(gp)
  8015e4:	10800058 	cmpnei	r2,r2,1
  8015e8:	1000111e 	bne	r2,zero,801630 <configurable_tlc+0x434>
		IOWR_ALTERA_AVALON_PIO_DATA(LEDS_GREEN_BASE, 0b00100001); //turn GREEN-RED on
  8015ec:	00c00844 	movi	r3,33
  8015f0:	00804434 	movhi	r2,272
  8015f4:	10841c04 	addi	r2,r2,4208
  8015f8:	10c00035 	stwio	r3,0(r2)
		if (!(timer_has_started)){
  8015fc:	d0a75a17 	ldw	r2,-25240(gp)
  801600:	1000821e 	bne	r2,zero,80180c <configurable_tlc+0x610>
			alt_alarm_start(&timer_simple, t2, configurable_tlc_timer_isr, timerContext);
  801604:	d0a00417 	ldw	r2,-32752(gp)
  801608:	e1fff217 	ldw	r7,-56(fp)
  80160c:	01802034 	movhi	r6,128
  801610:	31817d04 	addi	r6,r6,1524
  801614:	100b883a 	mov	r5,r2
  801618:	01002074 	movhi	r4,129
  80161c:	211f9b04 	addi	r4,r4,32364
  801620:	080f9d00 	call	80f9d0 <alt_alarm_start>
			timer_has_started = 1;
  801624:	00800044 	movi	r2,1
  801628:	d0a75a15 	stw	r2,-25240(gp)
  80162c:	00007706 	br	80180c <configurable_tlc+0x610>
		}
	}
	else if (current_state3 == grp1_3){
  801630:	d0a76117 	ldw	r2,-25212(gp)
  801634:	10800098 	cmpnei	r2,r2,2
  801638:	1000111e 	bne	r2,zero,801680 <configurable_tlc+0x484>
			IOWR_ALTERA_AVALON_PIO_DATA(LEDS_GREEN_BASE, 0b01100001); //turn GREEN-RED and PEDNS on
  80163c:	00c01844 	movi	r3,97
  801640:	00804434 	movhi	r2,272
  801644:	10841c04 	addi	r2,r2,4208
  801648:	10c00035 	stwio	r3,0(r2)
			if (!(timer_has_started)){
  80164c:	d0a75a17 	ldw	r2,-25240(gp)
  801650:	10006e1e 	bne	r2,zero,80180c <configurable_tlc+0x610>
				alt_alarm_start(&timer_simple, t2, configurable_tlc_timer_isr, timerContext);
  801654:	d0a00417 	ldw	r2,-32752(gp)
  801658:	e1fff217 	ldw	r7,-56(fp)
  80165c:	01802034 	movhi	r6,128
  801660:	31817d04 	addi	r6,r6,1524
  801664:	100b883a 	mov	r5,r2
  801668:	01002074 	movhi	r4,129
  80166c:	211f9b04 	addi	r4,r4,32364
  801670:	080f9d00 	call	80f9d0 <alt_alarm_start>
				timer_has_started = 1;
  801674:	00800044 	movi	r2,1
  801678:	d0a75a15 	stw	r2,-25240(gp)
  80167c:	00006306 	br	80180c <configurable_tlc+0x610>
			}
	}
	else if (current_state3 == yr_3){
  801680:	d0a76117 	ldw	r2,-25212(gp)
  801684:	108000d8 	cmpnei	r2,r2,3
  801688:	1000111e 	bne	r2,zero,8016d0 <configurable_tlc+0x4d4>
		IOWR_ALTERA_AVALON_PIO_DATA(LEDS_GREEN_BASE, 0b00100010); //turn YELLOW-RED on
  80168c:	00c00884 	movi	r3,34
  801690:	00804434 	movhi	r2,272
  801694:	10841c04 	addi	r2,r2,4208
  801698:	10c00035 	stwio	r3,0(r2)
		if (!(timer_has_started)){
  80169c:	d0a75a17 	ldw	r2,-25240(gp)
  8016a0:	10005a1e 	bne	r2,zero,80180c <configurable_tlc+0x610>
			alt_alarm_start(&timer_simple, t3, configurable_tlc_timer_isr, timerContext);
  8016a4:	d0a00517 	ldw	r2,-32748(gp)
  8016a8:	e1fff217 	ldw	r7,-56(fp)
  8016ac:	01802034 	movhi	r6,128
  8016b0:	31817d04 	addi	r6,r6,1524
  8016b4:	100b883a 	mov	r5,r2
  8016b8:	01002074 	movhi	r4,129
  8016bc:	211f9b04 	addi	r4,r4,32364
  8016c0:	080f9d00 	call	80f9d0 <alt_alarm_start>
			timer_has_started = 1;
  8016c4:	00800044 	movi	r2,1
  8016c8:	d0a75a15 	stw	r2,-25240(gp)
  8016cc:	00004f06 	br	80180c <configurable_tlc+0x610>
		}
	}
	else if (current_state3 == rr2_3){
  8016d0:	d0a76117 	ldw	r2,-25212(gp)
  8016d4:	10800118 	cmpnei	r2,r2,4
  8016d8:	1000111e 	bne	r2,zero,801720 <configurable_tlc+0x524>
		IOWR_ALTERA_AVALON_PIO_DATA(LEDS_GREEN_BASE, 0b00100100); //turn RED-RED on
  8016dc:	00c00904 	movi	r3,36
  8016e0:	00804434 	movhi	r2,272
  8016e4:	10841c04 	addi	r2,r2,4208
  8016e8:	10c00035 	stwio	r3,0(r2)
		if (!(timer_has_started)){
  8016ec:	d0a75a17 	ldw	r2,-25240(gp)
  8016f0:	1000461e 	bne	r2,zero,80180c <configurable_tlc+0x610>
			alt_alarm_start(&timer_simple, t4, configurable_tlc_timer_isr, timerContext);
  8016f4:	d0a00617 	ldw	r2,-32744(gp)
  8016f8:	e1fff217 	ldw	r7,-56(fp)
  8016fc:	01802034 	movhi	r6,128
  801700:	31817d04 	addi	r6,r6,1524
  801704:	100b883a 	mov	r5,r2
  801708:	01002074 	movhi	r4,129
  80170c:	211f9b04 	addi	r4,r4,32364
  801710:	080f9d00 	call	80f9d0 <alt_alarm_start>
			timer_has_started = 1;
  801714:	00800044 	movi	r2,1
  801718:	d0a75a15 	stw	r2,-25240(gp)
  80171c:	00003b06 	br	80180c <configurable_tlc+0x610>
		}
	}
	else if (current_state3 == rg_3){
  801720:	d0a76117 	ldw	r2,-25212(gp)
  801724:	10800158 	cmpnei	r2,r2,5
  801728:	1000111e 	bne	r2,zero,801770 <configurable_tlc+0x574>
		IOWR_ALTERA_AVALON_PIO_DATA(LEDS_GREEN_BASE, 0b00001100); //turn RED-GREEN on
  80172c:	00c00304 	movi	r3,12
  801730:	00804434 	movhi	r2,272
  801734:	10841c04 	addi	r2,r2,4208
  801738:	10c00035 	stwio	r3,0(r2)
		if (!(timer_has_started)){
  80173c:	d0a75a17 	ldw	r2,-25240(gp)
  801740:	1000321e 	bne	r2,zero,80180c <configurable_tlc+0x610>
			alt_alarm_start(&timer_simple, t5, configurable_tlc_timer_isr, timerContext);
  801744:	d0a00717 	ldw	r2,-32740(gp)
  801748:	e1fff217 	ldw	r7,-56(fp)
  80174c:	01802034 	movhi	r6,128
  801750:	31817d04 	addi	r6,r6,1524
  801754:	100b883a 	mov	r5,r2
  801758:	01002074 	movhi	r4,129
  80175c:	211f9b04 	addi	r4,r4,32364
  801760:	080f9d00 	call	80f9d0 <alt_alarm_start>
			timer_has_started = 1;
  801764:	00800044 	movi	r2,1
  801768:	d0a75a15 	stw	r2,-25240(gp)
  80176c:	00002706 	br	80180c <configurable_tlc+0x610>
		}
	}
	else if (current_state3 == rgp2_3){
  801770:	d0a76117 	ldw	r2,-25212(gp)
  801774:	10800198 	cmpnei	r2,r2,6
  801778:	1000111e 	bne	r2,zero,8017c0 <configurable_tlc+0x5c4>
		IOWR_ALTERA_AVALON_PIO_DATA(LEDS_GREEN_BASE, 0b10001100); //turn RED-GREEN and PEDEW on
  80177c:	00c02304 	movi	r3,140
  801780:	00804434 	movhi	r2,272
  801784:	10841c04 	addi	r2,r2,4208
  801788:	10c00035 	stwio	r3,0(r2)
		if (!(timer_has_started)){
  80178c:	d0a75a17 	ldw	r2,-25240(gp)
  801790:	10001e1e 	bne	r2,zero,80180c <configurable_tlc+0x610>
			alt_alarm_start(&timer_simple, t5, configurable_tlc_timer_isr, timerContext);
  801794:	d0a00717 	ldw	r2,-32740(gp)
  801798:	e1fff217 	ldw	r7,-56(fp)
  80179c:	01802034 	movhi	r6,128
  8017a0:	31817d04 	addi	r6,r6,1524
  8017a4:	100b883a 	mov	r5,r2
  8017a8:	01002074 	movhi	r4,129
  8017ac:	211f9b04 	addi	r4,r4,32364
  8017b0:	080f9d00 	call	80f9d0 <alt_alarm_start>
			timer_has_started = 1;
  8017b4:	00800044 	movi	r2,1
  8017b8:	d0a75a15 	stw	r2,-25240(gp)
  8017bc:	00001306 	br	80180c <configurable_tlc+0x610>
		}
	}
	else if (current_state3 == ry_3){
  8017c0:	d0a76117 	ldw	r2,-25212(gp)
  8017c4:	108001d8 	cmpnei	r2,r2,7
  8017c8:	1000101e 	bne	r2,zero,80180c <configurable_tlc+0x610>
		IOWR_ALTERA_AVALON_PIO_DATA(LEDS_GREEN_BASE, 0b00010100); //turn RED-YELLOW on
  8017cc:	00c00504 	movi	r3,20
  8017d0:	00804434 	movhi	r2,272
  8017d4:	10841c04 	addi	r2,r2,4208
  8017d8:	10c00035 	stwio	r3,0(r2)
		if (!(timer_has_started)){
  8017dc:	d0a75a17 	ldw	r2,-25240(gp)
  8017e0:	10000a1e 	bne	r2,zero,80180c <configurable_tlc+0x610>
			alt_alarm_start(&timer_simple, t6, configurable_tlc_timer_isr, timerContext);
  8017e4:	d0a00817 	ldw	r2,-32736(gp)
  8017e8:	e1fff217 	ldw	r7,-56(fp)
  8017ec:	01802034 	movhi	r6,128
  8017f0:	31817d04 	addi	r6,r6,1524
  8017f4:	100b883a 	mov	r5,r2
  8017f8:	01002074 	movhi	r4,129
  8017fc:	211f9b04 	addi	r4,r4,32364
  801800:	080f9d00 	call	80f9d0 <alt_alarm_start>
			timer_has_started = 1;
  801804:	00800044 	movi	r2,1
  801808:	d0a75a15 	stw	r2,-25240(gp)
		}
	}
	return 0;
  80180c:	0005883a 	mov	r2,zero
}
  801810:	e6ffff04 	addi	sp,fp,-4
  801814:	dfc00217 	ldw	ra,8(sp)
  801818:	df000117 	ldw	fp,4(sp)
  80181c:	dc000017 	ldw	r16,0(sp)
  801820:	dec00304 	addi	sp,sp,12
  801824:	f800283a 	ret

00801828 <camera_tlc>:

// Mode 4
// Includes a Camera
int camera_tlc(){
  801828:	deffea04 	addi	sp,sp,-88
  80182c:	dfc01515 	stw	ra,84(sp)
  801830:	df001415 	stw	fp,80(sp)
  801834:	dc001315 	stw	r16,76(sp)
  801838:	df001404 	addi	fp,sp,80
	void* timerContext = 0;
  80183c:	e03ff215 	stw	zero,-56(fp)
	unsigned int switch_value = IORD_ALTERA_AVALON_PIO_DATA(SWITCHES_BASE);
  801840:	00804434 	movhi	r2,272
  801844:	10842404 	addi	r2,r2,4240
  801848:	10800037 	ldwio	r2,0(r2)
  80184c:	e0bff315 	stw	r2,-52(fp)

	//loop through all states, starting timer on current state and setting outputs
	if (current_state4 == rr1_4){
  801850:	d0a76317 	ldw	r2,-25204(gp)
  801854:	1000ed1e 	bne	r2,zero,801c0c <camera_tlc+0x3e4>
		IOWR_ALTERA_AVALON_PIO_DATA(LEDS_GREEN_BASE, 0b00100100); //turn RED-RED on
  801858:	00c00904 	movi	r3,36
  80185c:	00804434 	movhi	r2,272
  801860:	10841c04 	addi	r2,r2,4208
  801864:	10c00035 	stwio	r3,0(r2)
		//check switch value to see if there are new timer values
		switch_value = IORD_ALTERA_AVALON_PIO_DATA(SWITCHES_BASE);
  801868:	00804434 	movhi	r2,272
  80186c:	10842404 	addi	r2,r2,4240
  801870:	10800037 	ldwio	r2,0(r2)
  801874:	e0bff315 	stw	r2,-52(fp)

		if (switch_value & (1<<17)){
  801878:	e0bff317 	ldw	r2,-52(fp)
  80187c:	108000ac 	andhi	r2,r2,2
  801880:	1000d526 	beq	r2,zero,801bd8 <camera_tlc+0x3b0>
			fprintf(uart,"Configuration mode, disable switch 17 then input new timeout values:\r\n");
  801884:	d0a76a17 	ldw	r2,-25176(gp)
  801888:	100f883a 	mov	r7,r2
  80188c:	01801184 	movi	r6,70
  801890:	01400044 	movi	r5,1
  801894:	01002074 	movhi	r4,129
  801898:	210f5e04 	addi	r4,r4,15736
  80189c:	0802e900 	call	802e90 <fwrite>
			//if switch 17 indicates configuration mode, block until complete valid string is received
			unsigned int strcomplete = 0;
  8018a0:	e03fec15 	stw	zero,-80(fp)
			unsigned int i = 0; //index for string retrieved from UART
  8018a4:	e03fed15 	stw	zero,-76(fp)
			char **splitstrings; //pointer to array of c-strings
			int numbers[10]; //array to store timeout values received from UART

			//allocate enough memory for array of c-strings
			splitstrings = (char**)malloc(10);
  8018a8:	01000284 	movi	r4,10
  8018ac:	08030800 	call	803080 <malloc>
  8018b0:	e0bff415 	stw	r2,-48(fp)
			//allocate enough memory for each c-string in array
			for (int j = 0; j < sizeof(splitstrings); ++j) {
  8018b4:	e03fee15 	stw	zero,-72(fp)
  8018b8:	00000c06 	br	8018ec <camera_tlc+0xc4>
				splitstrings[j] = (char*)malloc(10);
  8018bc:	e0bfee17 	ldw	r2,-72(fp)
  8018c0:	1085883a 	add	r2,r2,r2
  8018c4:	1085883a 	add	r2,r2,r2
  8018c8:	1007883a 	mov	r3,r2
  8018cc:	e0bff417 	ldw	r2,-48(fp)
  8018d0:	10e1883a 	add	r16,r2,r3
  8018d4:	01000284 	movi	r4,10
  8018d8:	08030800 	call	803080 <malloc>
  8018dc:	80800015 	stw	r2,0(r16)
			int numbers[10]; //array to store timeout values received from UART

			//allocate enough memory for array of c-strings
			splitstrings = (char**)malloc(10);
			//allocate enough memory for each c-string in array
			for (int j = 0; j < sizeof(splitstrings); ++j) {
  8018e0:	e0bfee17 	ldw	r2,-72(fp)
  8018e4:	10800044 	addi	r2,r2,1
  8018e8:	e0bfee15 	stw	r2,-72(fp)
  8018ec:	e0bfee17 	ldw	r2,-72(fp)
  8018f0:	10800130 	cmpltui	r2,r2,4
  8018f4:	103ff11e 	bne	r2,zero,8018bc <__alt_mem_onchip_mem+0xff7818bc>
				splitstrings[j] = (char*)malloc(10);
			}
			//block code and get input from UART stream
			while (strcomplete == 0){
  8018f8:	0000a906 	br	801ba0 <camera_tlc+0x378>
				config_values[i] = fgetc(uart);
  8018fc:	d0a76a17 	ldw	r2,-25176(gp)
  801900:	1009883a 	mov	r4,r2
  801904:	08021400 	call	802140 <fgetc>
  801908:	1009883a 	mov	r4,r2
  80190c:	00802074 	movhi	r2,129
  801910:	109fad04 	addi	r2,r2,32436
  801914:	e0ffed17 	ldw	r3,-76(fp)
  801918:	10c5883a 	add	r2,r2,r3
  80191c:	11000005 	stb	r4,0(r2)
				printf("%c",config_values[i]);
  801920:	00802074 	movhi	r2,129
  801924:	109fad04 	addi	r2,r2,32436
  801928:	e0ffed17 	ldw	r3,-76(fp)
  80192c:	10c5883a 	add	r2,r2,r3
  801930:	10800003 	ldbu	r2,0(r2)
  801934:	10803fcc 	andi	r2,r2,255
  801938:	1080201c 	xori	r2,r2,128
  80193c:	10bfe004 	addi	r2,r2,-128
  801940:	1009883a 	mov	r4,r2
  801944:	0803c180 	call	803c18 <putchar>
				fprintf(uart,"%c",config_values[i]);
  801948:	d1276a17 	ldw	r4,-25176(gp)
  80194c:	00802074 	movhi	r2,129
  801950:	109fad04 	addi	r2,r2,32436
  801954:	e0ffed17 	ldw	r3,-76(fp)
  801958:	10c5883a 	add	r2,r2,r3
  80195c:	10800003 	ldbu	r2,0(r2)
  801960:	10803fcc 	andi	r2,r2,255
  801964:	1080201c 	xori	r2,r2,128
  801968:	10bfe004 	addi	r2,r2,-128
  80196c:	200b883a 	mov	r5,r4
  801970:	1009883a 	mov	r4,r2
  801974:	08027040 	call	802704 <fputc>
				++i;
  801978:	e0bfed17 	ldw	r2,-76(fp)
  80197c:	10800044 	addi	r2,r2,1
  801980:	e0bfed15 	stw	r2,-76(fp)
				if (config_values[i-1] == '\n'){
  801984:	e0bfed17 	ldw	r2,-76(fp)
  801988:	10ffffc4 	addi	r3,r2,-1
  80198c:	00802074 	movhi	r2,129
  801990:	109fad04 	addi	r2,r2,32436
  801994:	10c5883a 	add	r2,r2,r3
  801998:	10800003 	ldbu	r2,0(r2)
  80199c:	10803fcc 	andi	r2,r2,255
  8019a0:	1080201c 	xori	r2,r2,128
  8019a4:	10bfe004 	addi	r2,r2,-128
  8019a8:	10800298 	cmpnei	r2,r2,10
  8019ac:	10007c1e 	bne	r2,zero,801ba0 <camera_tlc+0x378>

					//add NULL to end of string to indicate end of string
					config_values[i] = '\0';
  8019b0:	00802074 	movhi	r2,129
  8019b4:	109fad04 	addi	r2,r2,32436
  8019b8:	e0ffed17 	ldw	r3,-76(fp)
  8019bc:	10c5883a 	add	r2,r2,r3
  8019c0:	10000005 	stb	zero,0(r2)
					//move iterator to position 0 (effectively flushing the buffer)
					i = 0;
  8019c4:	e03fed15 	stw	zero,-76(fp)
					unsigned int k = 1; //iterator for array of c-strings
  8019c8:	00800044 	movi	r2,1
  8019cc:	e0bfef15 	stw	r2,-68(fp)

					//use strtok to split the UART string into separate strings from between the commas
					splitstrings[0] = strtok(config_values,comma);
  8019d0:	d1600204 	addi	r5,gp,-32760
  8019d4:	01002074 	movhi	r4,129
  8019d8:	211fad04 	addi	r4,r4,32436
  8019dc:	08040380 	call	804038 <strtok>
  8019e0:	1007883a 	mov	r3,r2
  8019e4:	e0bff417 	ldw	r2,-48(fp)
  8019e8:	10c00015 	stw	r3,0(r2)
					while (splitstrings[k-1] != NULL) {
  8019ec:	00000d06 	br	801a24 <camera_tlc+0x1fc>
							splitstrings[k] = strtok(NULL, comma);
  8019f0:	e0bfef17 	ldw	r2,-68(fp)
  8019f4:	1085883a 	add	r2,r2,r2
  8019f8:	1085883a 	add	r2,r2,r2
  8019fc:	1007883a 	mov	r3,r2
  801a00:	e0bff417 	ldw	r2,-48(fp)
  801a04:	10e1883a 	add	r16,r2,r3
  801a08:	d1600204 	addi	r5,gp,-32760
  801a0c:	0009883a 	mov	r4,zero
  801a10:	08040380 	call	804038 <strtok>
  801a14:	80800015 	stw	r2,0(r16)
							++k;
  801a18:	e0bfef17 	ldw	r2,-68(fp)
  801a1c:	10800044 	addi	r2,r2,1
  801a20:	e0bfef15 	stw	r2,-68(fp)
					i = 0;
					unsigned int k = 1; //iterator for array of c-strings

					//use strtok to split the UART string into separate strings from between the commas
					splitstrings[0] = strtok(config_values,comma);
					while (splitstrings[k-1] != NULL) {
  801a24:	e0ffef17 	ldw	r3,-68(fp)
  801a28:	00900034 	movhi	r2,16384
  801a2c:	10bfffc4 	addi	r2,r2,-1
  801a30:	1885883a 	add	r2,r3,r2
  801a34:	1085883a 	add	r2,r2,r2
  801a38:	1085883a 	add	r2,r2,r2
  801a3c:	1007883a 	mov	r3,r2
  801a40:	e0bff417 	ldw	r2,-48(fp)
  801a44:	10c5883a 	add	r2,r2,r3
  801a48:	10800017 	ldw	r2,0(r2)
  801a4c:	103fe81e 	bne	r2,zero,8019f0 <__alt_mem_onchip_mem+0xff7819f0>
							splitstrings[k] = strtok(NULL, comma);
							++k;
					}

					k = 0; //reset iterator for array of c-strings
  801a50:	e03fef15 	stw	zero,-68(fp)
					//do base-10 conversion of split strings to integers using strtol
					//this returns 0 for an invalid integer, so we are assuming a 0ms timeout is invalid
					while (splitstrings[k] != NULL){
  801a54:	00001606 	br	801ab0 <camera_tlc+0x288>
						numbers[k] = strtol(splitstrings[k],NULL,10);
  801a58:	e0bfef17 	ldw	r2,-68(fp)
  801a5c:	1085883a 	add	r2,r2,r2
  801a60:	1085883a 	add	r2,r2,r2
  801a64:	1007883a 	mov	r3,r2
  801a68:	e0bff417 	ldw	r2,-48(fp)
  801a6c:	10c5883a 	add	r2,r2,r3
  801a70:	10800017 	ldw	r2,0(r2)
  801a74:	01800284 	movi	r6,10
  801a78:	000b883a 	mov	r5,zero
  801a7c:	1009883a 	mov	r4,r2
  801a80:	080432c0 	call	80432c <strtol>
  801a84:	1007883a 	mov	r3,r2
  801a88:	e0bfef17 	ldw	r2,-68(fp)
  801a8c:	1085883a 	add	r2,r2,r2
  801a90:	1085883a 	add	r2,r2,r2
  801a94:	e13fec04 	addi	r4,fp,-80
  801a98:	2085883a 	add	r2,r4,r2
  801a9c:	10800904 	addi	r2,r2,36
  801aa0:	10c00015 	stw	r3,0(r2)
						++k;
  801aa4:	e0bfef17 	ldw	r2,-68(fp)
  801aa8:	10800044 	addi	r2,r2,1
  801aac:	e0bfef15 	stw	r2,-68(fp)
					}

					k = 0; //reset iterator for array of c-strings
					//do base-10 conversion of split strings to integers using strtol
					//this returns 0 for an invalid integer, so we are assuming a 0ms timeout is invalid
					while (splitstrings[k] != NULL){
  801ab0:	e0bfef17 	ldw	r2,-68(fp)
  801ab4:	1085883a 	add	r2,r2,r2
  801ab8:	1085883a 	add	r2,r2,r2
  801abc:	1007883a 	mov	r3,r2
  801ac0:	e0bff417 	ldw	r2,-48(fp)
  801ac4:	10c5883a 	add	r2,r2,r3
  801ac8:	10800017 	ldw	r2,0(r2)
  801acc:	103fe21e 	bne	r2,zero,801a58 <__alt_mem_onchip_mem+0xff781a58>
						numbers[k] = strtol(splitstrings[k],NULL,10);
						++k;
					}

					if (k == 6){
  801ad0:	e0bfef17 	ldw	r2,-68(fp)
  801ad4:	10800198 	cmpnei	r2,r2,6
  801ad8:	10002a1e 	bne	r2,zero,801b84 <camera_tlc+0x35c>
						unsigned int notinrange = 0;
  801adc:	e03ff015 	stw	zero,-64(fp)
						for (int j = 0; j < 6; ++j){
  801ae0:	e03ff115 	stw	zero,-60(fp)
  801ae4:	00001706 	br	801b44 <camera_tlc+0x31c>
							if ((numbers[j] <= 0) || (numbers[j] > 9999)){
  801ae8:	e0bff117 	ldw	r2,-60(fp)
  801aec:	1085883a 	add	r2,r2,r2
  801af0:	1085883a 	add	r2,r2,r2
  801af4:	e0ffec04 	addi	r3,fp,-80
  801af8:	1885883a 	add	r2,r3,r2
  801afc:	10800904 	addi	r2,r2,36
  801b00:	10800017 	ldw	r2,0(r2)
  801b04:	0080090e 	bge	zero,r2,801b2c <camera_tlc+0x304>
  801b08:	e0bff117 	ldw	r2,-60(fp)
  801b0c:	1085883a 	add	r2,r2,r2
  801b10:	1085883a 	add	r2,r2,r2
  801b14:	e13fec04 	addi	r4,fp,-80
  801b18:	2085883a 	add	r2,r4,r2
  801b1c:	10800904 	addi	r2,r2,36
  801b20:	10800017 	ldw	r2,0(r2)
  801b24:	1089c410 	cmplti	r2,r2,10000
  801b28:	1000031e 	bne	r2,zero,801b38 <camera_tlc+0x310>
								notinrange = 1;
  801b2c:	00800044 	movi	r2,1
  801b30:	e0bff015 	stw	r2,-64(fp)
								break;
  801b34:	00000606 	br	801b50 <camera_tlc+0x328>
						++k;
					}

					if (k == 6){
						unsigned int notinrange = 0;
						for (int j = 0; j < 6; ++j){
  801b38:	e0bff117 	ldw	r2,-60(fp)
  801b3c:	10800044 	addi	r2,r2,1
  801b40:	e0bff115 	stw	r2,-60(fp)
  801b44:	e0bff117 	ldw	r2,-60(fp)
  801b48:	10800190 	cmplti	r2,r2,6
  801b4c:	103fe61e 	bne	r2,zero,801ae8 <__alt_mem_onchip_mem+0xff781ae8>
							if ((numbers[j] <= 0) || (numbers[j] > 9999)){
								notinrange = 1;
								break;
							}
						}
						if (!(notinrange)){
  801b50:	e0bff017 	ldw	r2,-64(fp)
  801b54:	1000031e 	bne	r2,zero,801b64 <camera_tlc+0x33c>
							strcomplete = 1;
  801b58:	00800044 	movi	r2,1
  801b5c:	e0bfec15 	stw	r2,-80(fp)
  801b60:	00000f06 	br	801ba0 <camera_tlc+0x378>
						}
						else{
							fprintf(uart,"Invalid input, please re-enter numbers:\r\n");
  801b64:	d0a76a17 	ldw	r2,-25176(gp)
  801b68:	100f883a 	mov	r7,r2
  801b6c:	01800a44 	movi	r6,41
  801b70:	01400044 	movi	r5,1
  801b74:	01002074 	movhi	r4,129
  801b78:	210f7004 	addi	r4,r4,15808
  801b7c:	0802e900 	call	802e90 <fwrite>
  801b80:	00000706 	br	801ba0 <camera_tlc+0x378>
						}
					}
					else{
						fprintf(uart,"Not enough numbers input, please re-enter numbers:\r\n");
  801b84:	d0a76a17 	ldw	r2,-25176(gp)
  801b88:	100f883a 	mov	r7,r2
  801b8c:	01800d04 	movi	r6,52
  801b90:	01400044 	movi	r5,1
  801b94:	01002074 	movhi	r4,129
  801b98:	210f7b04 	addi	r4,r4,15852
  801b9c:	0802e900 	call	802e90 <fwrite>
			//allocate enough memory for each c-string in array
			for (int j = 0; j < sizeof(splitstrings); ++j) {
				splitstrings[j] = (char*)malloc(10);
			}
			//block code and get input from UART stream
			while (strcomplete == 0){
  801ba0:	e0bfec17 	ldw	r2,-80(fp)
  801ba4:	103f5526 	beq	r2,zero,8018fc <__alt_mem_onchip_mem+0xff7818fc>
						fprintf(uart,"Not enough numbers input, please re-enter numbers:\r\n");
					}
				}
			}
			//since numbers have been discovered to be valid, assign them to the timer controlling variables
			t1 = numbers[0];
  801ba8:	e0bff517 	ldw	r2,-44(fp)
  801bac:	d0a00315 	stw	r2,-32756(gp)
			t2 = numbers[1];
  801bb0:	e0bff617 	ldw	r2,-40(fp)
  801bb4:	d0a00415 	stw	r2,-32752(gp)
			t3 = numbers[2];
  801bb8:	e0bff717 	ldw	r2,-36(fp)
  801bbc:	d0a00515 	stw	r2,-32748(gp)
			t4 = numbers[3];
  801bc0:	e0bff817 	ldw	r2,-32(fp)
  801bc4:	d0a00615 	stw	r2,-32744(gp)
			t5 = numbers[4];
  801bc8:	e0bff917 	ldw	r2,-28(fp)
  801bcc:	d0a00715 	stw	r2,-32740(gp)
			t6 = numbers[5];
  801bd0:	e0bffa17 	ldw	r2,-24(fp)
  801bd4:	d0a00815 	stw	r2,-32736(gp)
		}

		if (!(timer_has_started)){
  801bd8:	d0a75a17 	ldw	r2,-25240(gp)
  801bdc:	1000961e 	bne	r2,zero,801e38 <camera_tlc+0x610>
			alt_alarm_start(&timer_simple, t1, camera_tlc_timer_isr, timerContext);
  801be0:	d0a00317 	ldw	r2,-32756(gp)
  801be4:	e1fff217 	ldw	r7,-56(fp)
  801be8:	01802034 	movhi	r6,128
  801bec:	31820f04 	addi	r6,r6,2108
  801bf0:	100b883a 	mov	r5,r2
  801bf4:	01002074 	movhi	r4,129
  801bf8:	211f9b04 	addi	r4,r4,32364
  801bfc:	080f9d00 	call	80f9d0 <alt_alarm_start>
			timer_has_started = 1;
  801c00:	00800044 	movi	r2,1
  801c04:	d0a75a15 	stw	r2,-25240(gp)
  801c08:	00008b06 	br	801e38 <camera_tlc+0x610>
		}
	}
	else if (current_state4 == gr_4){
  801c0c:	d0a76317 	ldw	r2,-25204(gp)
  801c10:	10800058 	cmpnei	r2,r2,1
  801c14:	1000111e 	bne	r2,zero,801c5c <camera_tlc+0x434>
		IOWR_ALTERA_AVALON_PIO_DATA(LEDS_GREEN_BASE, 0b00100001); //turn GREEN-RED on
  801c18:	00c00844 	movi	r3,33
  801c1c:	00804434 	movhi	r2,272
  801c20:	10841c04 	addi	r2,r2,4208
  801c24:	10c00035 	stwio	r3,0(r2)
		if (!(timer_has_started)){
  801c28:	d0a75a17 	ldw	r2,-25240(gp)
  801c2c:	1000821e 	bne	r2,zero,801e38 <camera_tlc+0x610>
			alt_alarm_start(&timer_simple, t2, camera_tlc_timer_isr, timerContext);
  801c30:	d0a00417 	ldw	r2,-32752(gp)
  801c34:	e1fff217 	ldw	r7,-56(fp)
  801c38:	01802034 	movhi	r6,128
  801c3c:	31820f04 	addi	r6,r6,2108
  801c40:	100b883a 	mov	r5,r2
  801c44:	01002074 	movhi	r4,129
  801c48:	211f9b04 	addi	r4,r4,32364
  801c4c:	080f9d00 	call	80f9d0 <alt_alarm_start>
			timer_has_started = 1;
  801c50:	00800044 	movi	r2,1
  801c54:	d0a75a15 	stw	r2,-25240(gp)
  801c58:	00007706 	br	801e38 <camera_tlc+0x610>
		}
	}
	else if (current_state4 == grp1_4){
  801c5c:	d0a76317 	ldw	r2,-25204(gp)
  801c60:	10800098 	cmpnei	r2,r2,2
  801c64:	1000111e 	bne	r2,zero,801cac <camera_tlc+0x484>
			IOWR_ALTERA_AVALON_PIO_DATA(LEDS_GREEN_BASE, 0b01100001); //turn GREEN-RED and PEDNS on
  801c68:	00c01844 	movi	r3,97
  801c6c:	00804434 	movhi	r2,272
  801c70:	10841c04 	addi	r2,r2,4208
  801c74:	10c00035 	stwio	r3,0(r2)
			if (!(timer_has_started)){
  801c78:	d0a75a17 	ldw	r2,-25240(gp)
  801c7c:	10006e1e 	bne	r2,zero,801e38 <camera_tlc+0x610>
				alt_alarm_start(&timer_simple, t2, camera_tlc_timer_isr, timerContext);
  801c80:	d0a00417 	ldw	r2,-32752(gp)
  801c84:	e1fff217 	ldw	r7,-56(fp)
  801c88:	01802034 	movhi	r6,128
  801c8c:	31820f04 	addi	r6,r6,2108
  801c90:	100b883a 	mov	r5,r2
  801c94:	01002074 	movhi	r4,129
  801c98:	211f9b04 	addi	r4,r4,32364
  801c9c:	080f9d00 	call	80f9d0 <alt_alarm_start>
				timer_has_started = 1;
  801ca0:	00800044 	movi	r2,1
  801ca4:	d0a75a15 	stw	r2,-25240(gp)
  801ca8:	00006306 	br	801e38 <camera_tlc+0x610>
			}
	}
	else if (current_state4 == yr_4){
  801cac:	d0a76317 	ldw	r2,-25204(gp)
  801cb0:	108000d8 	cmpnei	r2,r2,3
  801cb4:	1000111e 	bne	r2,zero,801cfc <camera_tlc+0x4d4>
		IOWR_ALTERA_AVALON_PIO_DATA(LEDS_GREEN_BASE, 0b00100010); //turn YELLOW-RED on
  801cb8:	00c00884 	movi	r3,34
  801cbc:	00804434 	movhi	r2,272
  801cc0:	10841c04 	addi	r2,r2,4208
  801cc4:	10c00035 	stwio	r3,0(r2)
		if (!(timer_has_started)){
  801cc8:	d0a75a17 	ldw	r2,-25240(gp)
  801ccc:	10005a1e 	bne	r2,zero,801e38 <camera_tlc+0x610>
			alt_alarm_start(&timer_simple, t3, camera_tlc_timer_isr, timerContext);
  801cd0:	d0a00517 	ldw	r2,-32748(gp)
  801cd4:	e1fff217 	ldw	r7,-56(fp)
  801cd8:	01802034 	movhi	r6,128
  801cdc:	31820f04 	addi	r6,r6,2108
  801ce0:	100b883a 	mov	r5,r2
  801ce4:	01002074 	movhi	r4,129
  801ce8:	211f9b04 	addi	r4,r4,32364
  801cec:	080f9d00 	call	80f9d0 <alt_alarm_start>
			timer_has_started = 1;
  801cf0:	00800044 	movi	r2,1
  801cf4:	d0a75a15 	stw	r2,-25240(gp)
  801cf8:	00004f06 	br	801e38 <camera_tlc+0x610>
		}
	}
	else if (current_state4 == rr2_4){
  801cfc:	d0a76317 	ldw	r2,-25204(gp)
  801d00:	10800118 	cmpnei	r2,r2,4
  801d04:	1000111e 	bne	r2,zero,801d4c <camera_tlc+0x524>
		IOWR_ALTERA_AVALON_PIO_DATA(LEDS_GREEN_BASE, 0b00100100); //turn RED-RED on
  801d08:	00c00904 	movi	r3,36
  801d0c:	00804434 	movhi	r2,272
  801d10:	10841c04 	addi	r2,r2,4208
  801d14:	10c00035 	stwio	r3,0(r2)
		if (!(timer_has_started)){
  801d18:	d0a75a17 	ldw	r2,-25240(gp)
  801d1c:	1000461e 	bne	r2,zero,801e38 <camera_tlc+0x610>
			alt_alarm_start(&timer_simple, t4, camera_tlc_timer_isr, timerContext);
  801d20:	d0a00617 	ldw	r2,-32744(gp)
  801d24:	e1fff217 	ldw	r7,-56(fp)
  801d28:	01802034 	movhi	r6,128
  801d2c:	31820f04 	addi	r6,r6,2108
  801d30:	100b883a 	mov	r5,r2
  801d34:	01002074 	movhi	r4,129
  801d38:	211f9b04 	addi	r4,r4,32364
  801d3c:	080f9d00 	call	80f9d0 <alt_alarm_start>
			timer_has_started = 1;
  801d40:	00800044 	movi	r2,1
  801d44:	d0a75a15 	stw	r2,-25240(gp)
  801d48:	00003b06 	br	801e38 <camera_tlc+0x610>
		}
	}
	else if (current_state4 == rg_4){
  801d4c:	d0a76317 	ldw	r2,-25204(gp)
  801d50:	10800158 	cmpnei	r2,r2,5
  801d54:	1000111e 	bne	r2,zero,801d9c <camera_tlc+0x574>
		IOWR_ALTERA_AVALON_PIO_DATA(LEDS_GREEN_BASE, 0b00001100); //turn RED-GREEN on
  801d58:	00c00304 	movi	r3,12
  801d5c:	00804434 	movhi	r2,272
  801d60:	10841c04 	addi	r2,r2,4208
  801d64:	10c00035 	stwio	r3,0(r2)
		if (!(timer_has_started)){
  801d68:	d0a75a17 	ldw	r2,-25240(gp)
  801d6c:	1000321e 	bne	r2,zero,801e38 <camera_tlc+0x610>
			alt_alarm_start(&timer_simple, t5, camera_tlc_timer_isr, timerContext);
  801d70:	d0a00717 	ldw	r2,-32740(gp)
  801d74:	e1fff217 	ldw	r7,-56(fp)
  801d78:	01802034 	movhi	r6,128
  801d7c:	31820f04 	addi	r6,r6,2108
  801d80:	100b883a 	mov	r5,r2
  801d84:	01002074 	movhi	r4,129
  801d88:	211f9b04 	addi	r4,r4,32364
  801d8c:	080f9d00 	call	80f9d0 <alt_alarm_start>
			timer_has_started = 1;
  801d90:	00800044 	movi	r2,1
  801d94:	d0a75a15 	stw	r2,-25240(gp)
  801d98:	00002706 	br	801e38 <camera_tlc+0x610>
		}
	}
	else if (current_state4 == rgp2_4){
  801d9c:	d0a76317 	ldw	r2,-25204(gp)
  801da0:	10800198 	cmpnei	r2,r2,6
  801da4:	1000111e 	bne	r2,zero,801dec <camera_tlc+0x5c4>
		IOWR_ALTERA_AVALON_PIO_DATA(LEDS_GREEN_BASE, 0b10001100); //turn RED-GREEN and PEDEW on
  801da8:	00c02304 	movi	r3,140
  801dac:	00804434 	movhi	r2,272
  801db0:	10841c04 	addi	r2,r2,4208
  801db4:	10c00035 	stwio	r3,0(r2)
		if (!(timer_has_started)){
  801db8:	d0a75a17 	ldw	r2,-25240(gp)
  801dbc:	10001e1e 	bne	r2,zero,801e38 <camera_tlc+0x610>
			alt_alarm_start(&timer_simple, t5, camera_tlc_timer_isr, timerContext);
  801dc0:	d0a00717 	ldw	r2,-32740(gp)
  801dc4:	e1fff217 	ldw	r7,-56(fp)
  801dc8:	01802034 	movhi	r6,128
  801dcc:	31820f04 	addi	r6,r6,2108
  801dd0:	100b883a 	mov	r5,r2
  801dd4:	01002074 	movhi	r4,129
  801dd8:	211f9b04 	addi	r4,r4,32364
  801ddc:	080f9d00 	call	80f9d0 <alt_alarm_start>
			timer_has_started = 1;
  801de0:	00800044 	movi	r2,1
  801de4:	d0a75a15 	stw	r2,-25240(gp)
  801de8:	00001306 	br	801e38 <camera_tlc+0x610>
		}
	}
	else if (current_state4 == ry_4){
  801dec:	d0a76317 	ldw	r2,-25204(gp)
  801df0:	108001d8 	cmpnei	r2,r2,7
  801df4:	1000101e 	bne	r2,zero,801e38 <camera_tlc+0x610>
		IOWR_ALTERA_AVALON_PIO_DATA(LEDS_GREEN_BASE, 0b00010100); //turn RED-YELLOW on
  801df8:	00c00504 	movi	r3,20
  801dfc:	00804434 	movhi	r2,272
  801e00:	10841c04 	addi	r2,r2,4208
  801e04:	10c00035 	stwio	r3,0(r2)
		if (!(timer_has_started)){
  801e08:	d0a75a17 	ldw	r2,-25240(gp)
  801e0c:	10000a1e 	bne	r2,zero,801e38 <camera_tlc+0x610>
			alt_alarm_start(&timer_simple, t6, camera_tlc_timer_isr, timerContext);
  801e10:	d0a00817 	ldw	r2,-32736(gp)
  801e14:	e1fff217 	ldw	r7,-56(fp)
  801e18:	01802034 	movhi	r6,128
  801e1c:	31820f04 	addi	r6,r6,2108
  801e20:	100b883a 	mov	r5,r2
  801e24:	01002074 	movhi	r4,129
  801e28:	211f9b04 	addi	r4,r4,32364
  801e2c:	080f9d00 	call	80f9d0 <alt_alarm_start>
			timer_has_started = 1;
  801e30:	00800044 	movi	r2,1
  801e34:	d0a75a15 	stw	r2,-25240(gp)
		}
	}
	return 0;
  801e38:	0005883a 	mov	r2,zero
}
  801e3c:	e6ffff04 	addi	sp,fp,-4
  801e40:	dfc00217 	ldw	ra,8(sp)
  801e44:	df000117 	ldw	fp,4(sp)
  801e48:	dc000017 	ldw	r16,0(sp)
  801e4c:	dec00304 	addi	sp,sp,12
  801e50:	f800283a 	ret

00801e54 <main>:

int main() {
  801e54:	defffc04 	addi	sp,sp,-16
  801e58:	dfc00315 	stw	ra,12(sp)
  801e5c:	df000215 	stw	fp,8(sp)
  801e60:	df000204 	addi	fp,sp,8
	unsigned int switch_value = 0;
  801e64:	e03ffe15 	stw	zero,-8(fp)
	void* context = 0;
  801e68:	e03fff15 	stw	zero,-4(fp)
	IOWR_ALTERA_AVALON_PIO_EDGE_CAP(BUTTONS_BASE, 0);
  801e6c:	0007883a 	mov	r3,zero
  801e70:	00804434 	movhi	r2,272
  801e74:	10842b04 	addi	r2,r2,4268
  801e78:	10c00035 	stwio	r3,0(r2)
	//enable interrupts for all buttons
	IOWR_ALTERA_AVALON_PIO_IRQ_MASK(BUTTONS_BASE, 0x7);
  801e7c:	00c001c4 	movi	r3,7
  801e80:	00804434 	movhi	r2,272
  801e84:	10842a04 	addi	r2,r2,4264
  801e88:	10c00035 	stwio	r3,0(r2)
	//register the button interrupt ISR
	alt_irq_register(BUTTONS_IRQ, context, button_interrupt);
  801e8c:	01802034 	movhi	r6,128
  801e90:	3182c004 	addi	r6,r6,2816
  801e94:	e17fff17 	ldw	r5,-4(fp)
  801e98:	01000104 	movi	r4,4
  801e9c:	080fd200 	call	80fd20 <alt_irq_register>
	//turn on the LCD
	lcd = fopen(LCD_NAME, "w");
  801ea0:	01402074 	movhi	r5,129
  801ea4:	294f8904 	addi	r5,r5,15908
  801ea8:	01002074 	movhi	r4,129
  801eac:	210f8a04 	addi	r4,r4,15912
  801eb0:	080265c0 	call	80265c <fopen>
  801eb4:	d0a76915 	stw	r2,-25180(gp)
	uart = fopen(UART_NAME, "r+"); //Open an existing file for both reading and writing.
  801eb8:	01402074 	movhi	r5,129
  801ebc:	294f8d04 	addi	r5,r5,15924
  801ec0:	01002074 	movhi	r4,129
  801ec4:	210f8e04 	addi	r4,r4,15928
  801ec8:	080265c0 	call	80265c <fopen>
  801ecc:	d0a76a15 	stw	r2,-25176(gp)
	//The initial contents of the file are unchanged and the initial file position is at the beginning of the file.

	while(1) {
		//read switch value and bitmask to check specific switches (descending priority)
		switch_value = IORD_ALTERA_AVALON_PIO_DATA(SWITCHES_BASE);
  801ed0:	00804434 	movhi	r2,272
  801ed4:	10842404 	addi	r2,r2,4240
  801ed8:	10800037 	ldwio	r2,0(r2)
  801edc:	e0bffe15 	stw	r2,-8(fp)
		//set mode request depending on switch configuration
		//priority encoded (descending order, i.e. mode 4 is highest and mode 1 is lowest)
		if ((1<<3 & switch_value)) {
  801ee0:	e0bffe17 	ldw	r2,-8(fp)
  801ee4:	1080020c 	andi	r2,r2,8
  801ee8:	10000326 	beq	r2,zero,801ef8 <main+0xa4>
			mode_request = 4;
  801eec:	00800104 	movi	r2,4
  801ef0:	d0a75c15 	stw	r2,-25232(gp)
  801ef4:	00001306 	br	801f44 <main+0xf0>
		}
		else if ((1<<2 & switch_value)) {
  801ef8:	e0bffe17 	ldw	r2,-8(fp)
  801efc:	1080010c 	andi	r2,r2,4
  801f00:	10000326 	beq	r2,zero,801f10 <main+0xbc>
			mode_request = 3;
  801f04:	008000c4 	movi	r2,3
  801f08:	d0a75c15 	stw	r2,-25232(gp)
  801f0c:	00000d06 	br	801f44 <main+0xf0>
		}
		else if ((1<<1 & switch_value)) {
  801f10:	e0bffe17 	ldw	r2,-8(fp)
  801f14:	1080008c 	andi	r2,r2,2
  801f18:	10000326 	beq	r2,zero,801f28 <main+0xd4>
			mode_request = 2;
  801f1c:	00800084 	movi	r2,2
  801f20:	d0a75c15 	stw	r2,-25232(gp)
  801f24:	00000706 	br	801f44 <main+0xf0>
		}
		else if ((1<<0 & switch_value)) {
  801f28:	e0bffe17 	ldw	r2,-8(fp)
  801f2c:	1080004c 	andi	r2,r2,1
  801f30:	10000326 	beq	r2,zero,801f40 <main+0xec>
			mode_request = 1;
  801f34:	00800044 	movi	r2,1
  801f38:	d0a75c15 	stw	r2,-25232(gp)
  801f3c:	00000106 	br	801f44 <main+0xf0>
		}
		else
			mode_request = 0;
  801f40:	d0275c15 	stw	zero,-25232(gp)

		//if there is a new mode request:
		//check if we are at a safe state (corresponding to the mode we are in)
		//if safe, then change mode (and make sure to reset all states and interrupt flags)
		if (current_mode != mode_request) {
  801f44:	d0e00017 	ldw	r3,-32768(gp)
  801f48:	d0a75c17 	ldw	r2,-25232(gp)
  801f4c:	18803c26 	beq	r3,r2,802040 <main+0x1ec>
			switch(current_mode){
  801f50:	d0a00017 	ldw	r2,-32768(gp)
  801f54:	10c000a0 	cmpeqi	r3,r2,2
  801f58:	1800131e 	bne	r3,zero,801fa8 <main+0x154>
  801f5c:	10c000c8 	cmpgei	r3,r2,3
  801f60:	1800031e 	bne	r3,zero,801f70 <main+0x11c>
  801f64:	10800060 	cmpeqi	r2,r2,1
  801f68:	1000061e 	bne	r2,zero,801f84 <main+0x130>
  801f6c:	00002906 	br	802014 <main+0x1c0>
  801f70:	10c000e0 	cmpeqi	r3,r2,3
  801f74:	1800151e 	bne	r3,zero,801fcc <main+0x178>
  801f78:	10800120 	cmpeqi	r2,r2,4
  801f7c:	10001c1e 	bne	r2,zero,801ff0 <main+0x19c>
  801f80:	00002406 	br	802014 <main+0x1c0>
			case 1:
				if ((current_state1 == rr1_1) || (current_state1 == rr2_1)){
  801f84:	d0a75d17 	ldw	r2,-25228(gp)
  801f88:	10000326 	beq	r2,zero,801f98 <main+0x144>
  801f8c:	d0a75d17 	ldw	r2,-25228(gp)
  801f90:	108000d8 	cmpnei	r2,r2,3
  801f94:	1000231e 	bne	r2,zero,802024 <main+0x1d0>
					current_mode = mode_request;
  801f98:	d0a75c17 	ldw	r2,-25232(gp)
  801f9c:	d0a00015 	stw	r2,-32768(gp)
					reset_volatiles();
  801fa0:	08002900 	call	800290 <reset_volatiles>
				}
				break;
  801fa4:	00001f06 	br	802024 <main+0x1d0>
			case 2:
				if ((current_state2 == rr1_2) || (current_state2 == rr2_2)){
  801fa8:	d0a75f17 	ldw	r2,-25220(gp)
  801fac:	10000326 	beq	r2,zero,801fbc <main+0x168>
  801fb0:	d0a75f17 	ldw	r2,-25220(gp)
  801fb4:	10800118 	cmpnei	r2,r2,4
  801fb8:	10001c1e 	bne	r2,zero,80202c <main+0x1d8>
					current_mode = mode_request;
  801fbc:	d0a75c17 	ldw	r2,-25232(gp)
  801fc0:	d0a00015 	stw	r2,-32768(gp)
					reset_volatiles();
  801fc4:	08002900 	call	800290 <reset_volatiles>
				}
				break;
  801fc8:	00001806 	br	80202c <main+0x1d8>
			case 3:
				if ((current_state3 == rr1_3) || (current_state3 == rr2_3)){
  801fcc:	d0a76117 	ldw	r2,-25212(gp)
  801fd0:	10000326 	beq	r2,zero,801fe0 <main+0x18c>
  801fd4:	d0a76117 	ldw	r2,-25212(gp)
  801fd8:	10800118 	cmpnei	r2,r2,4
  801fdc:	1000151e 	bne	r2,zero,802034 <main+0x1e0>
					current_mode = mode_request;
  801fe0:	d0a75c17 	ldw	r2,-25232(gp)
  801fe4:	d0a00015 	stw	r2,-32768(gp)
					reset_volatiles();
  801fe8:	08002900 	call	800290 <reset_volatiles>
				}
				break;
  801fec:	00001106 	br	802034 <main+0x1e0>
			case 4:
				if ((current_state4 == rr1_4) || (current_state4 == rr2_4)){
  801ff0:	d0a76317 	ldw	r2,-25204(gp)
  801ff4:	10000326 	beq	r2,zero,802004 <main+0x1b0>
  801ff8:	d0a76317 	ldw	r2,-25204(gp)
  801ffc:	10800118 	cmpnei	r2,r2,4
  802000:	10000e1e 	bne	r2,zero,80203c <main+0x1e8>
					current_mode = mode_request;
  802004:	d0a75c17 	ldw	r2,-25232(gp)
  802008:	d0a00015 	stw	r2,-32768(gp)
					reset_volatiles();
  80200c:	08002900 	call	800290 <reset_volatiles>
				}
				break;
  802010:	00000a06 	br	80203c <main+0x1e8>
			default: //starting state
				current_mode = mode_request;
  802014:	d0a75c17 	ldw	r2,-25232(gp)
  802018:	d0a00015 	stw	r2,-32768(gp)
				reset_volatiles();
  80201c:	08002900 	call	800290 <reset_volatiles>
  802020:	00000706 	br	802040 <main+0x1ec>
			case 1:
				if ((current_state1 == rr1_1) || (current_state1 == rr2_1)){
					current_mode = mode_request;
					reset_volatiles();
				}
				break;
  802024:	0001883a 	nop
  802028:	00000506 	br	802040 <main+0x1ec>
			case 2:
				if ((current_state2 == rr1_2) || (current_state2 == rr2_2)){
					current_mode = mode_request;
					reset_volatiles();
				}
				break;
  80202c:	0001883a 	nop
  802030:	00000306 	br	802040 <main+0x1ec>
			case 3:
				if ((current_state3 == rr1_3) || (current_state3 == rr2_3)){
					current_mode = mode_request;
					reset_volatiles();
				}
				break;
  802034:	0001883a 	nop
  802038:	00000106 	br	802040 <main+0x1ec>
			case 4:
				if ((current_state4 == rr1_4) || (current_state4 == rr2_4)){
					current_mode = mode_request;
					reset_volatiles();
				}
				break;
  80203c:	0001883a 	nop
				reset_volatiles();
			}
		}


		switch(current_mode){
  802040:	d0a00017 	ldw	r2,-32768(gp)
  802044:	10c000a0 	cmpeqi	r3,r2,2
  802048:	18000e1e 	bne	r3,zero,802084 <main+0x230>
  80204c:	10c000c8 	cmpgei	r3,r2,3
  802050:	1800031e 	bne	r3,zero,802060 <main+0x20c>
  802054:	10800060 	cmpeqi	r2,r2,1
  802058:	1000061e 	bne	r2,zero,802074 <main+0x220>
  80205c:	00001506 	br	8020b4 <main+0x260>
  802060:	10c000e0 	cmpeqi	r3,r2,3
  802064:	18000b1e 	bne	r3,zero,802094 <main+0x240>
  802068:	10800120 	cmpeqi	r2,r2,4
  80206c:	10000d1e 	bne	r2,zero,8020a4 <main+0x250>
  802070:	00001006 	br	8020b4 <main+0x260>
		case 1:
			simple_tlc();
  802074:	0800d8c0 	call	800d8c <simple_tlc>
			lcd_set_mode(1);
  802078:	01000044 	movi	r4,1
  80207c:	0800d0c0 	call	800d0c <lcd_set_mode>
			break;
  802080:	00001206 	br	8020cc <main+0x278>
		case 2:
			pedestrian_tlc();
  802084:	0800f780 	call	800f78 <pedestrian_tlc>
			lcd_set_mode(2);
  802088:	01000084 	movi	r4,2
  80208c:	0800d0c0 	call	800d0c <lcd_set_mode>
			break;
  802090:	00000e06 	br	8020cc <main+0x278>
		case 3:
			configurable_tlc();
  802094:	08011fc0 	call	8011fc <configurable_tlc>
			lcd_set_mode(3);
  802098:	010000c4 	movi	r4,3
  80209c:	0800d0c0 	call	800d0c <lcd_set_mode>
			break;
  8020a0:	00000a06 	br	8020cc <main+0x278>
		case 4:
			camera_tlc();
  8020a4:	08018280 	call	801828 <camera_tlc>
			lcd_set_mode(4);
  8020a8:	01000104 	movi	r4,4
  8020ac:	0800d0c0 	call	800d0c <lcd_set_mode>
			break;
  8020b0:	00000606 	br	8020cc <main+0x278>
		default:
			lcd_set_mode(0);
  8020b4:	0009883a 	mov	r4,zero
  8020b8:	0800d0c0 	call	800d0c <lcd_set_mode>
			IOWR_ALTERA_AVALON_PIO_DATA(LEDS_GREEN_BASE, 0b111111); //all LEDs on
  8020bc:	00c00fc4 	movi	r3,63
  8020c0:	00804434 	movhi	r2,272
  8020c4:	10841c04 	addi	r2,r2,4208
  8020c8:	10c00035 	stwio	r3,0(r2)
		}
	}
  8020cc:	003f8006 	br	801ed0 <__alt_mem_onchip_mem+0xff781ed0>

008020d0 <_fgetc_r>:
  8020d0:	defffd04 	addi	sp,sp,-12
  8020d4:	dc000115 	stw	r16,4(sp)
  8020d8:	dfc00215 	stw	ra,8(sp)
  8020dc:	2021883a 	mov	r16,r4
  8020e0:	20000226 	beq	r4,zero,8020ec <_fgetc_r+0x1c>
  8020e4:	20800e17 	ldw	r2,56(r4)
  8020e8:	10000c26 	beq	r2,zero,80211c <_fgetc_r+0x4c>
  8020ec:	28800117 	ldw	r2,4(r5)
  8020f0:	10bfffc4 	addi	r2,r2,-1
  8020f4:	28800115 	stw	r2,4(r5)
  8020f8:	10000c16 	blt	r2,zero,80212c <_fgetc_r+0x5c>
  8020fc:	28800017 	ldw	r2,0(r5)
  802100:	10c00044 	addi	r3,r2,1
  802104:	28c00015 	stw	r3,0(r5)
  802108:	10800003 	ldbu	r2,0(r2)
  80210c:	dfc00217 	ldw	ra,8(sp)
  802110:	dc000117 	ldw	r16,4(sp)
  802114:	dec00304 	addi	sp,sp,12
  802118:	f800283a 	ret
  80211c:	d9400015 	stw	r5,0(sp)
  802120:	08025180 	call	802518 <__sinit>
  802124:	d9400017 	ldw	r5,0(sp)
  802128:	003ff006 	br	8020ec <__alt_mem_onchip_mem+0xff7820ec>
  80212c:	8009883a 	mov	r4,r16
  802130:	dfc00217 	ldw	ra,8(sp)
  802134:	dc000117 	ldw	r16,4(sp)
  802138:	dec00304 	addi	sp,sp,12
  80213c:	0803e201 	jmpi	803e20 <__srget_r>

00802140 <fgetc>:
  802140:	00802074 	movhi	r2,129
  802144:	defffd04 	addi	sp,sp,-12
  802148:	10982204 	addi	r2,r2,24712
  80214c:	dc400115 	stw	r17,4(sp)
  802150:	14400017 	ldw	r17,0(r2)
  802154:	dc000015 	stw	r16,0(sp)
  802158:	dfc00215 	stw	ra,8(sp)
  80215c:	2021883a 	mov	r16,r4
  802160:	88000226 	beq	r17,zero,80216c <fgetc+0x2c>
  802164:	88800e17 	ldw	r2,56(r17)
  802168:	10000d26 	beq	r2,zero,8021a0 <fgetc+0x60>
  80216c:	80800117 	ldw	r2,4(r16)
  802170:	10bfffc4 	addi	r2,r2,-1
  802174:	80800115 	stw	r2,4(r16)
  802178:	10000c16 	blt	r2,zero,8021ac <fgetc+0x6c>
  80217c:	80800017 	ldw	r2,0(r16)
  802180:	10c00044 	addi	r3,r2,1
  802184:	80c00015 	stw	r3,0(r16)
  802188:	10800003 	ldbu	r2,0(r2)
  80218c:	dfc00217 	ldw	ra,8(sp)
  802190:	dc400117 	ldw	r17,4(sp)
  802194:	dc000017 	ldw	r16,0(sp)
  802198:	dec00304 	addi	sp,sp,12
  80219c:	f800283a 	ret
  8021a0:	8809883a 	mov	r4,r17
  8021a4:	08025180 	call	802518 <__sinit>
  8021a8:	003ff006 	br	80216c <__alt_mem_onchip_mem+0xff78216c>
  8021ac:	800b883a 	mov	r5,r16
  8021b0:	8809883a 	mov	r4,r17
  8021b4:	dfc00217 	ldw	ra,8(sp)
  8021b8:	dc400117 	ldw	r17,4(sp)
  8021bc:	dc000017 	ldw	r16,0(sp)
  8021c0:	dec00304 	addi	sp,sp,12
  8021c4:	0803e201 	jmpi	803e20 <__srget_r>

008021c8 <__fp_unlock>:
  8021c8:	0005883a 	mov	r2,zero
  8021cc:	f800283a 	ret

008021d0 <_cleanup_r>:
  8021d0:	01402074 	movhi	r5,129
  8021d4:	29608004 	addi	r5,r5,-32256
  8021d8:	0802d001 	jmpi	802d00 <_fwalk_reent>

008021dc <__sinit.part.1>:
  8021dc:	defff704 	addi	sp,sp,-36
  8021e0:	00c02034 	movhi	r3,128
  8021e4:	dfc00815 	stw	ra,32(sp)
  8021e8:	ddc00715 	stw	r23,28(sp)
  8021ec:	dd800615 	stw	r22,24(sp)
  8021f0:	dd400515 	stw	r21,20(sp)
  8021f4:	dd000415 	stw	r20,16(sp)
  8021f8:	dcc00315 	stw	r19,12(sp)
  8021fc:	dc800215 	stw	r18,8(sp)
  802200:	dc400115 	stw	r17,4(sp)
  802204:	dc000015 	stw	r16,0(sp)
  802208:	18c87404 	addi	r3,r3,8656
  80220c:	24000117 	ldw	r16,4(r4)
  802210:	20c00f15 	stw	r3,60(r4)
  802214:	2080bb04 	addi	r2,r4,748
  802218:	00c000c4 	movi	r3,3
  80221c:	20c0b915 	stw	r3,740(r4)
  802220:	2080ba15 	stw	r2,744(r4)
  802224:	2000b815 	stw	zero,736(r4)
  802228:	05c00204 	movi	r23,8
  80222c:	00800104 	movi	r2,4
  802230:	2025883a 	mov	r18,r4
  802234:	b80d883a 	mov	r6,r23
  802238:	81001704 	addi	r4,r16,92
  80223c:	000b883a 	mov	r5,zero
  802240:	80000015 	stw	zero,0(r16)
  802244:	80000115 	stw	zero,4(r16)
  802248:	80000215 	stw	zero,8(r16)
  80224c:	8080030d 	sth	r2,12(r16)
  802250:	80001915 	stw	zero,100(r16)
  802254:	8000038d 	sth	zero,14(r16)
  802258:	80000415 	stw	zero,16(r16)
  80225c:	80000515 	stw	zero,20(r16)
  802260:	80000615 	stw	zero,24(r16)
  802264:	08038b40 	call	8038b4 <memset>
  802268:	05802034 	movhi	r22,128
  80226c:	94400217 	ldw	r17,8(r18)
  802270:	05402034 	movhi	r21,128
  802274:	05002034 	movhi	r20,128
  802278:	04c02034 	movhi	r19,128
  80227c:	b58fbf04 	addi	r22,r22,16124
  802280:	ad4fd604 	addi	r21,r21,16216
  802284:	a50ff504 	addi	r20,r20,16340
  802288:	9cd00c04 	addi	r19,r19,16432
  80228c:	85800815 	stw	r22,32(r16)
  802290:	85400915 	stw	r21,36(r16)
  802294:	85000a15 	stw	r20,40(r16)
  802298:	84c00b15 	stw	r19,44(r16)
  80229c:	84000715 	stw	r16,28(r16)
  8022a0:	00800284 	movi	r2,10
  8022a4:	8880030d 	sth	r2,12(r17)
  8022a8:	00800044 	movi	r2,1
  8022ac:	b80d883a 	mov	r6,r23
  8022b0:	89001704 	addi	r4,r17,92
  8022b4:	000b883a 	mov	r5,zero
  8022b8:	88000015 	stw	zero,0(r17)
  8022bc:	88000115 	stw	zero,4(r17)
  8022c0:	88000215 	stw	zero,8(r17)
  8022c4:	88001915 	stw	zero,100(r17)
  8022c8:	8880038d 	sth	r2,14(r17)
  8022cc:	88000415 	stw	zero,16(r17)
  8022d0:	88000515 	stw	zero,20(r17)
  8022d4:	88000615 	stw	zero,24(r17)
  8022d8:	08038b40 	call	8038b4 <memset>
  8022dc:	94000317 	ldw	r16,12(r18)
  8022e0:	00800484 	movi	r2,18
  8022e4:	8c400715 	stw	r17,28(r17)
  8022e8:	8d800815 	stw	r22,32(r17)
  8022ec:	8d400915 	stw	r21,36(r17)
  8022f0:	8d000a15 	stw	r20,40(r17)
  8022f4:	8cc00b15 	stw	r19,44(r17)
  8022f8:	8080030d 	sth	r2,12(r16)
  8022fc:	00800084 	movi	r2,2
  802300:	80000015 	stw	zero,0(r16)
  802304:	80000115 	stw	zero,4(r16)
  802308:	80000215 	stw	zero,8(r16)
  80230c:	80001915 	stw	zero,100(r16)
  802310:	8080038d 	sth	r2,14(r16)
  802314:	80000415 	stw	zero,16(r16)
  802318:	80000515 	stw	zero,20(r16)
  80231c:	80000615 	stw	zero,24(r16)
  802320:	b80d883a 	mov	r6,r23
  802324:	000b883a 	mov	r5,zero
  802328:	81001704 	addi	r4,r16,92
  80232c:	08038b40 	call	8038b4 <memset>
  802330:	00800044 	movi	r2,1
  802334:	84000715 	stw	r16,28(r16)
  802338:	85800815 	stw	r22,32(r16)
  80233c:	85400915 	stw	r21,36(r16)
  802340:	85000a15 	stw	r20,40(r16)
  802344:	84c00b15 	stw	r19,44(r16)
  802348:	90800e15 	stw	r2,56(r18)
  80234c:	dfc00817 	ldw	ra,32(sp)
  802350:	ddc00717 	ldw	r23,28(sp)
  802354:	dd800617 	ldw	r22,24(sp)
  802358:	dd400517 	ldw	r21,20(sp)
  80235c:	dd000417 	ldw	r20,16(sp)
  802360:	dcc00317 	ldw	r19,12(sp)
  802364:	dc800217 	ldw	r18,8(sp)
  802368:	dc400117 	ldw	r17,4(sp)
  80236c:	dc000017 	ldw	r16,0(sp)
  802370:	dec00904 	addi	sp,sp,36
  802374:	f800283a 	ret

00802378 <__fp_lock>:
  802378:	0005883a 	mov	r2,zero
  80237c:	f800283a 	ret

00802380 <__sfmoreglue>:
  802380:	defffc04 	addi	sp,sp,-16
  802384:	dc400115 	stw	r17,4(sp)
  802388:	2c7fffc4 	addi	r17,r5,-1
  80238c:	8c401a24 	muli	r17,r17,104
  802390:	dc800215 	stw	r18,8(sp)
  802394:	2825883a 	mov	r18,r5
  802398:	89401d04 	addi	r5,r17,116
  80239c:	dc000015 	stw	r16,0(sp)
  8023a0:	dfc00315 	stw	ra,12(sp)
  8023a4:	08030a80 	call	8030a8 <_malloc_r>
  8023a8:	1021883a 	mov	r16,r2
  8023ac:	10000726 	beq	r2,zero,8023cc <__sfmoreglue+0x4c>
  8023b0:	11000304 	addi	r4,r2,12
  8023b4:	10000015 	stw	zero,0(r2)
  8023b8:	14800115 	stw	r18,4(r2)
  8023bc:	11000215 	stw	r4,8(r2)
  8023c0:	89801a04 	addi	r6,r17,104
  8023c4:	000b883a 	mov	r5,zero
  8023c8:	08038b40 	call	8038b4 <memset>
  8023cc:	8005883a 	mov	r2,r16
  8023d0:	dfc00317 	ldw	ra,12(sp)
  8023d4:	dc800217 	ldw	r18,8(sp)
  8023d8:	dc400117 	ldw	r17,4(sp)
  8023dc:	dc000017 	ldw	r16,0(sp)
  8023e0:	dec00404 	addi	sp,sp,16
  8023e4:	f800283a 	ret

008023e8 <__sfp>:
  8023e8:	defffb04 	addi	sp,sp,-20
  8023ec:	dc000015 	stw	r16,0(sp)
  8023f0:	04002074 	movhi	r16,129
  8023f4:	84182104 	addi	r16,r16,24708
  8023f8:	dcc00315 	stw	r19,12(sp)
  8023fc:	2027883a 	mov	r19,r4
  802400:	81000017 	ldw	r4,0(r16)
  802404:	dfc00415 	stw	ra,16(sp)
  802408:	dc800215 	stw	r18,8(sp)
  80240c:	20800e17 	ldw	r2,56(r4)
  802410:	dc400115 	stw	r17,4(sp)
  802414:	1000021e 	bne	r2,zero,802420 <__sfp+0x38>
  802418:	08021dc0 	call	8021dc <__sinit.part.1>
  80241c:	81000017 	ldw	r4,0(r16)
  802420:	2480b804 	addi	r18,r4,736
  802424:	047fffc4 	movi	r17,-1
  802428:	91000117 	ldw	r4,4(r18)
  80242c:	94000217 	ldw	r16,8(r18)
  802430:	213fffc4 	addi	r4,r4,-1
  802434:	20000a16 	blt	r4,zero,802460 <__sfp+0x78>
  802438:	8080030f 	ldh	r2,12(r16)
  80243c:	10000c26 	beq	r2,zero,802470 <__sfp+0x88>
  802440:	80c01d04 	addi	r3,r16,116
  802444:	00000206 	br	802450 <__sfp+0x68>
  802448:	18bfe60f 	ldh	r2,-104(r3)
  80244c:	10000826 	beq	r2,zero,802470 <__sfp+0x88>
  802450:	213fffc4 	addi	r4,r4,-1
  802454:	1c3ffd04 	addi	r16,r3,-12
  802458:	18c01a04 	addi	r3,r3,104
  80245c:	247ffa1e 	bne	r4,r17,802448 <__alt_mem_onchip_mem+0xff782448>
  802460:	90800017 	ldw	r2,0(r18)
  802464:	10001d26 	beq	r2,zero,8024dc <__sfp+0xf4>
  802468:	1025883a 	mov	r18,r2
  80246c:	003fee06 	br	802428 <__alt_mem_onchip_mem+0xff782428>
  802470:	00bfffc4 	movi	r2,-1
  802474:	8080038d 	sth	r2,14(r16)
  802478:	00800044 	movi	r2,1
  80247c:	8080030d 	sth	r2,12(r16)
  802480:	80001915 	stw	zero,100(r16)
  802484:	80000015 	stw	zero,0(r16)
  802488:	80000215 	stw	zero,8(r16)
  80248c:	80000115 	stw	zero,4(r16)
  802490:	80000415 	stw	zero,16(r16)
  802494:	80000515 	stw	zero,20(r16)
  802498:	80000615 	stw	zero,24(r16)
  80249c:	01800204 	movi	r6,8
  8024a0:	000b883a 	mov	r5,zero
  8024a4:	81001704 	addi	r4,r16,92
  8024a8:	08038b40 	call	8038b4 <memset>
  8024ac:	8005883a 	mov	r2,r16
  8024b0:	80000c15 	stw	zero,48(r16)
  8024b4:	80000d15 	stw	zero,52(r16)
  8024b8:	80001115 	stw	zero,68(r16)
  8024bc:	80001215 	stw	zero,72(r16)
  8024c0:	dfc00417 	ldw	ra,16(sp)
  8024c4:	dcc00317 	ldw	r19,12(sp)
  8024c8:	dc800217 	ldw	r18,8(sp)
  8024cc:	dc400117 	ldw	r17,4(sp)
  8024d0:	dc000017 	ldw	r16,0(sp)
  8024d4:	dec00504 	addi	sp,sp,20
  8024d8:	f800283a 	ret
  8024dc:	01400104 	movi	r5,4
  8024e0:	9809883a 	mov	r4,r19
  8024e4:	08023800 	call	802380 <__sfmoreglue>
  8024e8:	90800015 	stw	r2,0(r18)
  8024ec:	103fde1e 	bne	r2,zero,802468 <__alt_mem_onchip_mem+0xff782468>
  8024f0:	00800304 	movi	r2,12
  8024f4:	98800015 	stw	r2,0(r19)
  8024f8:	0005883a 	mov	r2,zero
  8024fc:	003ff006 	br	8024c0 <__alt_mem_onchip_mem+0xff7824c0>

00802500 <_cleanup>:
  802500:	00802074 	movhi	r2,129
  802504:	10982104 	addi	r2,r2,24708
  802508:	11000017 	ldw	r4,0(r2)
  80250c:	01402074 	movhi	r5,129
  802510:	29608004 	addi	r5,r5,-32256
  802514:	0802d001 	jmpi	802d00 <_fwalk_reent>

00802518 <__sinit>:
  802518:	20800e17 	ldw	r2,56(r4)
  80251c:	10000126 	beq	r2,zero,802524 <__sinit+0xc>
  802520:	f800283a 	ret
  802524:	08021dc1 	jmpi	8021dc <__sinit.part.1>

00802528 <__sfp_lock_acquire>:
  802528:	f800283a 	ret

0080252c <__sfp_lock_release>:
  80252c:	f800283a 	ret

00802530 <__sinit_lock_acquire>:
  802530:	f800283a 	ret

00802534 <__sinit_lock_release>:
  802534:	f800283a 	ret

00802538 <__fp_lock_all>:
  802538:	00802074 	movhi	r2,129
  80253c:	10982204 	addi	r2,r2,24712
  802540:	11000017 	ldw	r4,0(r2)
  802544:	01402034 	movhi	r5,128
  802548:	2948de04 	addi	r5,r5,9080
  80254c:	0802c3c1 	jmpi	802c3c <_fwalk>

00802550 <__fp_unlock_all>:
  802550:	00802074 	movhi	r2,129
  802554:	10982204 	addi	r2,r2,24712
  802558:	11000017 	ldw	r4,0(r2)
  80255c:	01402034 	movhi	r5,128
  802560:	29487204 	addi	r5,r5,8648
  802564:	0802c3c1 	jmpi	802c3c <_fwalk>

00802568 <_fopen_r>:
  802568:	defffa04 	addi	sp,sp,-24
  80256c:	3005883a 	mov	r2,r6
  802570:	dcc00415 	stw	r19,16(sp)
  802574:	d80d883a 	mov	r6,sp
  802578:	2827883a 	mov	r19,r5
  80257c:	100b883a 	mov	r5,r2
  802580:	dc800315 	stw	r18,12(sp)
  802584:	dfc00515 	stw	ra,20(sp)
  802588:	dc400215 	stw	r17,8(sp)
  80258c:	dc000115 	stw	r16,4(sp)
  802590:	2025883a 	mov	r18,r4
  802594:	08085ac0 	call	8085ac <__sflags>
  802598:	10002726 	beq	r2,zero,802638 <_fopen_r+0xd0>
  80259c:	9009883a 	mov	r4,r18
  8025a0:	1023883a 	mov	r17,r2
  8025a4:	08023e80 	call	8023e8 <__sfp>
  8025a8:	1021883a 	mov	r16,r2
  8025ac:	10002226 	beq	r2,zero,802638 <_fopen_r+0xd0>
  8025b0:	d9800017 	ldw	r6,0(sp)
  8025b4:	01c06d84 	movi	r7,438
  8025b8:	980b883a 	mov	r5,r19
  8025bc:	9009883a 	mov	r4,r18
  8025c0:	08039dc0 	call	8039dc <_open_r>
  8025c4:	10001916 	blt	r2,zero,80262c <_fopen_r+0xc4>
  8025c8:	8080038d 	sth	r2,14(r16)
  8025cc:	00802034 	movhi	r2,128
  8025d0:	108fbf04 	addi	r2,r2,16124
  8025d4:	80800815 	stw	r2,32(r16)
  8025d8:	00802034 	movhi	r2,128
  8025dc:	108fd604 	addi	r2,r2,16216
  8025e0:	80800915 	stw	r2,36(r16)
  8025e4:	00802034 	movhi	r2,128
  8025e8:	108ff504 	addi	r2,r2,16340
  8025ec:	80800a15 	stw	r2,40(r16)
  8025f0:	00802034 	movhi	r2,128
  8025f4:	10900c04 	addi	r2,r2,16432
  8025f8:	8440030d 	sth	r17,12(r16)
  8025fc:	84000715 	stw	r16,28(r16)
  802600:	80800b15 	stw	r2,44(r16)
  802604:	8c40400c 	andi	r17,r17,256
  802608:	88000d1e 	bne	r17,zero,802640 <_fopen_r+0xd8>
  80260c:	8005883a 	mov	r2,r16
  802610:	dfc00517 	ldw	ra,20(sp)
  802614:	dcc00417 	ldw	r19,16(sp)
  802618:	dc800317 	ldw	r18,12(sp)
  80261c:	dc400217 	ldw	r17,8(sp)
  802620:	dc000117 	ldw	r16,4(sp)
  802624:	dec00604 	addi	sp,sp,24
  802628:	f800283a 	ret
  80262c:	08025280 	call	802528 <__sfp_lock_acquire>
  802630:	8000030d 	sth	zero,12(r16)
  802634:	080252c0 	call	80252c <__sfp_lock_release>
  802638:	0005883a 	mov	r2,zero
  80263c:	003ff406 	br	802610 <__alt_mem_onchip_mem+0xff782610>
  802640:	01c00084 	movi	r7,2
  802644:	000d883a 	mov	r6,zero
  802648:	800b883a 	mov	r5,r16
  80264c:	9009883a 	mov	r4,r18
  802650:	08027600 	call	802760 <_fseek_r>
  802654:	8005883a 	mov	r2,r16
  802658:	003fed06 	br	802610 <__alt_mem_onchip_mem+0xff782610>

0080265c <fopen>:
  80265c:	00802074 	movhi	r2,129
  802660:	10982204 	addi	r2,r2,24712
  802664:	280d883a 	mov	r6,r5
  802668:	200b883a 	mov	r5,r4
  80266c:	11000017 	ldw	r4,0(r2)
  802670:	08025681 	jmpi	802568 <_fopen_r>

00802674 <_fprintf_r>:
  802674:	defffe04 	addi	sp,sp,-8
  802678:	2809883a 	mov	r4,r5
  80267c:	300b883a 	mov	r5,r6
  802680:	dfc00015 	stw	ra,0(sp)
  802684:	d9c00115 	stw	r7,4(sp)
  802688:	d9800104 	addi	r6,sp,4
  80268c:	08065400 	call	806540 <__vfprintf_internal>
  802690:	dfc00017 	ldw	ra,0(sp)
  802694:	dec00204 	addi	sp,sp,8
  802698:	f800283a 	ret

0080269c <fprintf>:
  80269c:	defffd04 	addi	sp,sp,-12
  8026a0:	dfc00015 	stw	ra,0(sp)
  8026a4:	d9800115 	stw	r6,4(sp)
  8026a8:	d9c00215 	stw	r7,8(sp)
  8026ac:	d9800104 	addi	r6,sp,4
  8026b0:	08065400 	call	806540 <__vfprintf_internal>
  8026b4:	dfc00017 	ldw	ra,0(sp)
  8026b8:	dec00304 	addi	sp,sp,12
  8026bc:	f800283a 	ret

008026c0 <_fputc_r>:
  8026c0:	defffc04 	addi	sp,sp,-16
  8026c4:	dc000215 	stw	r16,8(sp)
  8026c8:	dfc00315 	stw	ra,12(sp)
  8026cc:	2021883a 	mov	r16,r4
  8026d0:	20000726 	beq	r4,zero,8026f0 <_fputc_r+0x30>
  8026d4:	20800e17 	ldw	r2,56(r4)
  8026d8:	1000051e 	bne	r2,zero,8026f0 <_fputc_r+0x30>
  8026dc:	d9400015 	stw	r5,0(sp)
  8026e0:	d9800115 	stw	r6,4(sp)
  8026e4:	08025180 	call	802518 <__sinit>
  8026e8:	d9800117 	ldw	r6,4(sp)
  8026ec:	d9400017 	ldw	r5,0(sp)
  8026f0:	8009883a 	mov	r4,r16
  8026f4:	dfc00317 	ldw	ra,12(sp)
  8026f8:	dc000217 	ldw	r16,8(sp)
  8026fc:	dec00404 	addi	sp,sp,16
  802700:	0803aa81 	jmpi	803aa8 <_putc_r>

00802704 <fputc>:
  802704:	00802074 	movhi	r2,129
  802708:	defffc04 	addi	sp,sp,-16
  80270c:	10982204 	addi	r2,r2,24712
  802710:	dc000115 	stw	r16,4(sp)
  802714:	14000017 	ldw	r16,0(r2)
  802718:	dc400215 	stw	r17,8(sp)
  80271c:	dfc00315 	stw	ra,12(sp)
  802720:	2023883a 	mov	r17,r4
  802724:	80000626 	beq	r16,zero,802740 <fputc+0x3c>
  802728:	80800e17 	ldw	r2,56(r16)
  80272c:	1000041e 	bne	r2,zero,802740 <fputc+0x3c>
  802730:	8009883a 	mov	r4,r16
  802734:	d9400015 	stw	r5,0(sp)
  802738:	08025180 	call	802518 <__sinit>
  80273c:	d9400017 	ldw	r5,0(sp)
  802740:	280d883a 	mov	r6,r5
  802744:	8009883a 	mov	r4,r16
  802748:	880b883a 	mov	r5,r17
  80274c:	dfc00317 	ldw	ra,12(sp)
  802750:	dc400217 	ldw	r17,8(sp)
  802754:	dc000117 	ldw	r16,4(sp)
  802758:	dec00404 	addi	sp,sp,16
  80275c:	0803aa81 	jmpi	803aa8 <_putc_r>

00802760 <_fseek_r>:
  802760:	08027801 	jmpi	802780 <_fseeko_r>

00802764 <fseek>:
  802764:	00802074 	movhi	r2,129
  802768:	10982204 	addi	r2,r2,24712
  80276c:	300f883a 	mov	r7,r6
  802770:	280d883a 	mov	r6,r5
  802774:	200b883a 	mov	r5,r4
  802778:	11000017 	ldw	r4,0(r2)
  80277c:	08027801 	jmpi	802780 <_fseeko_r>

00802780 <_fseeko_r>:
  802780:	deffe804 	addi	sp,sp,-96
  802784:	dd401415 	stw	r21,80(sp)
  802788:	dc801115 	stw	r18,68(sp)
  80278c:	dc401015 	stw	r17,64(sp)
  802790:	dc000f15 	stw	r16,60(sp)
  802794:	dfc01715 	stw	ra,92(sp)
  802798:	ddc01615 	stw	r23,88(sp)
  80279c:	dd801515 	stw	r22,84(sp)
  8027a0:	dd001315 	stw	r20,76(sp)
  8027a4:	dcc01215 	stw	r19,72(sp)
  8027a8:	2023883a 	mov	r17,r4
  8027ac:	2821883a 	mov	r16,r5
  8027b0:	302b883a 	mov	r21,r6
  8027b4:	3825883a 	mov	r18,r7
  8027b8:	20000226 	beq	r4,zero,8027c4 <_fseeko_r+0x44>
  8027bc:	20800e17 	ldw	r2,56(r4)
  8027c0:	10005a26 	beq	r2,zero,80292c <_fseeko_r+0x1ac>
  8027c4:	8080030b 	ldhu	r2,12(r16)
  8027c8:	00c04204 	movi	r3,264
  8027cc:	1080420c 	andi	r2,r2,264
  8027d0:	10c05b26 	beq	r2,r3,802940 <_fseeko_r+0x1c0>
  8027d4:	85000a17 	ldw	r20,40(r16)
  8027d8:	a000f626 	beq	r20,zero,802bb4 <_fseeko_r+0x434>
  8027dc:	00800044 	movi	r2,1
  8027e0:	90803e26 	beq	r18,r2,8028dc <_fseeko_r+0x15c>
  8027e4:	00800084 	movi	r2,2
  8027e8:	90801026 	beq	r18,r2,80282c <_fseeko_r+0xac>
  8027ec:	90000f26 	beq	r18,zero,80282c <_fseeko_r+0xac>
  8027f0:	00800584 	movi	r2,22
  8027f4:	88800015 	stw	r2,0(r17)
  8027f8:	04ffffc4 	movi	r19,-1
  8027fc:	9805883a 	mov	r2,r19
  802800:	dfc01717 	ldw	ra,92(sp)
  802804:	ddc01617 	ldw	r23,88(sp)
  802808:	dd801517 	ldw	r22,84(sp)
  80280c:	dd401417 	ldw	r21,80(sp)
  802810:	dd001317 	ldw	r20,76(sp)
  802814:	dcc01217 	ldw	r19,72(sp)
  802818:	dc801117 	ldw	r18,68(sp)
  80281c:	dc401017 	ldw	r17,64(sp)
  802820:	dc000f17 	ldw	r16,60(sp)
  802824:	dec01804 	addi	sp,sp,96
  802828:	f800283a 	ret
  80282c:	80800417 	ldw	r2,16(r16)
  802830:	002f883a 	mov	r23,zero
  802834:	0027883a 	mov	r19,zero
  802838:	1000cb26 	beq	r2,zero,802b68 <_fseeko_r+0x3e8>
  80283c:	8080030b 	ldhu	r2,12(r16)
  802840:	10c2068c 	andi	r3,r2,2074
  802844:	1800071e 	bne	r3,zero,802864 <_fseeko_r+0xe4>
  802848:	10c1000c 	andi	r3,r2,1024
  80284c:	1800451e 	bne	r3,zero,802964 <_fseeko_r+0x1e4>
  802850:	00c02034 	movhi	r3,128
  802854:	18cff504 	addi	r3,r3,16340
  802858:	a0c0b726 	beq	r20,r3,802b38 <_fseeko_r+0x3b8>
  80285c:	10820014 	ori	r2,r2,2048
  802860:	8080030d 	sth	r2,12(r16)
  802864:	800b883a 	mov	r5,r16
  802868:	8809883a 	mov	r4,r17
  80286c:	08085200 	call	808520 <_fflush_r>
  802870:	1027883a 	mov	r19,r2
  802874:	103fe01e 	bne	r2,zero,8027f8 <__alt_mem_onchip_mem+0xff7827f8>
  802878:	81400717 	ldw	r5,28(r16)
  80287c:	900f883a 	mov	r7,r18
  802880:	a80d883a 	mov	r6,r21
  802884:	8809883a 	mov	r4,r17
  802888:	a03ee83a 	callr	r20
  80288c:	00ffffc4 	movi	r3,-1
  802890:	10ffd926 	beq	r2,r3,8027f8 <__alt_mem_onchip_mem+0xff7827f8>
  802894:	81400c17 	ldw	r5,48(r16)
  802898:	28000526 	beq	r5,zero,8028b0 <_fseeko_r+0x130>
  80289c:	80801004 	addi	r2,r16,64
  8028a0:	28800226 	beq	r5,r2,8028ac <_fseeko_r+0x12c>
  8028a4:	8809883a 	mov	r4,r17
  8028a8:	080877c0 	call	80877c <_free_r>
  8028ac:	80000c15 	stw	zero,48(r16)
  8028b0:	8080030b 	ldhu	r2,12(r16)
  8028b4:	80c00417 	ldw	r3,16(r16)
  8028b8:	80000115 	stw	zero,4(r16)
  8028bc:	10bdf7cc 	andi	r2,r2,63455
  8028c0:	80c00015 	stw	r3,0(r16)
  8028c4:	8080030d 	sth	r2,12(r16)
  8028c8:	01800204 	movi	r6,8
  8028cc:	000b883a 	mov	r5,zero
  8028d0:	81001704 	addi	r4,r16,92
  8028d4:	08038b40 	call	8038b4 <memset>
  8028d8:	003fc806 	br	8027fc <__alt_mem_onchip_mem+0xff7827fc>
  8028dc:	800b883a 	mov	r5,r16
  8028e0:	8809883a 	mov	r4,r17
  8028e4:	08085200 	call	808520 <_fflush_r>
  8028e8:	8080030b 	ldhu	r2,12(r16)
  8028ec:	10c4000c 	andi	r3,r2,4096
  8028f0:	18008726 	beq	r3,zero,802b10 <_fseeko_r+0x390>
  8028f4:	84c01417 	ldw	r19,80(r16)
  8028f8:	10c0010c 	andi	r3,r2,4
  8028fc:	1800431e 	bne	r3,zero,802a0c <_fseeko_r+0x28c>
  802900:	1080020c 	andi	r2,r2,8
  802904:	10008026 	beq	r2,zero,802b08 <_fseeko_r+0x388>
  802908:	80c00017 	ldw	r3,0(r16)
  80290c:	80800417 	ldw	r2,16(r16)
  802910:	18000226 	beq	r3,zero,80291c <_fseeko_r+0x19c>
  802914:	1887c83a 	sub	r3,r3,r2
  802918:	98e7883a 	add	r19,r19,r3
  80291c:	aceb883a 	add	r21,r21,r19
  802920:	05c00044 	movi	r23,1
  802924:	0025883a 	mov	r18,zero
  802928:	003fc306 	br	802838 <__alt_mem_onchip_mem+0xff782838>
  80292c:	08025180 	call	802518 <__sinit>
  802930:	8080030b 	ldhu	r2,12(r16)
  802934:	00c04204 	movi	r3,264
  802938:	1080420c 	andi	r2,r2,264
  80293c:	10ffa51e 	bne	r2,r3,8027d4 <__alt_mem_onchip_mem+0xff7827d4>
  802940:	800b883a 	mov	r5,r16
  802944:	8809883a 	mov	r4,r17
  802948:	08085200 	call	808520 <_fflush_r>
  80294c:	003fa106 	br	8027d4 <__alt_mem_onchip_mem+0xff7827d4>
  802950:	8080030b 	ldhu	r2,12(r16)
  802954:	00c10004 	movi	r3,1024
  802958:	80c01315 	stw	r3,76(r16)
  80295c:	10c4b03a 	or	r2,r2,r3
  802960:	8080030d 	sth	r2,12(r16)
  802964:	9000311e 	bne	r18,zero,802a2c <_fseeko_r+0x2ac>
  802968:	a82d883a 	mov	r22,r21
  80296c:	b800371e 	bne	r23,zero,802a4c <_fseeko_r+0x2cc>
  802970:	8080030b 	ldhu	r2,12(r16)
  802974:	1084000c 	andi	r2,r2,4096
  802978:	10007f26 	beq	r2,zero,802b78 <_fseeko_r+0x3f8>
  80297c:	80801417 	ldw	r2,80(r16)
  802980:	81800117 	ldw	r6,4(r16)
  802984:	81400c17 	ldw	r5,48(r16)
  802988:	11a7c83a 	sub	r19,r2,r6
  80298c:	28008226 	beq	r5,zero,802b98 <_fseeko_r+0x418>
  802990:	81c00f17 	ldw	r7,60(r16)
  802994:	99e7c83a 	sub	r19,r19,r7
  802998:	81000e17 	ldw	r4,56(r16)
  80299c:	80800417 	ldw	r2,16(r16)
  8029a0:	99a7883a 	add	r19,r19,r6
  8029a4:	2087c83a 	sub	r3,r4,r2
  8029a8:	98e7c83a 	sub	r19,r19,r3
  8029ac:	38c7883a 	add	r3,r7,r3
  8029b0:	b4c02b16 	blt	r22,r19,802a60 <_fseeko_r+0x2e0>
  8029b4:	98c9883a 	add	r4,r19,r3
  8029b8:	b100292e 	bgeu	r22,r4,802a60 <_fseeko_r+0x2e0>
  8029bc:	b4e7c83a 	sub	r19,r22,r19
  8029c0:	14c5883a 	add	r2,r2,r19
  8029c4:	1ce7c83a 	sub	r19,r3,r19
  8029c8:	80800015 	stw	r2,0(r16)
  8029cc:	84c00115 	stw	r19,4(r16)
  8029d0:	28000526 	beq	r5,zero,8029e8 <_fseeko_r+0x268>
  8029d4:	80801004 	addi	r2,r16,64
  8029d8:	28800226 	beq	r5,r2,8029e4 <_fseeko_r+0x264>
  8029dc:	8809883a 	mov	r4,r17
  8029e0:	080877c0 	call	80877c <_free_r>
  8029e4:	80000c15 	stw	zero,48(r16)
  8029e8:	8080030b 	ldhu	r2,12(r16)
  8029ec:	01800204 	movi	r6,8
  8029f0:	000b883a 	mov	r5,zero
  8029f4:	10bff7cc 	andi	r2,r2,65503
  8029f8:	8080030d 	sth	r2,12(r16)
  8029fc:	81001704 	addi	r4,r16,92
  802a00:	08038b40 	call	8038b4 <memset>
  802a04:	0027883a 	mov	r19,zero
  802a08:	003f7c06 	br	8027fc <__alt_mem_onchip_mem+0xff7827fc>
  802a0c:	80c00117 	ldw	r3,4(r16)
  802a10:	80800c17 	ldw	r2,48(r16)
  802a14:	98e7c83a 	sub	r19,r19,r3
  802a18:	10003b26 	beq	r2,zero,802b08 <_fseeko_r+0x388>
  802a1c:	80c00f17 	ldw	r3,60(r16)
  802a20:	80800417 	ldw	r2,16(r16)
  802a24:	98e7c83a 	sub	r19,r19,r3
  802a28:	003fbc06 	br	80291c <__alt_mem_onchip_mem+0xff78291c>
  802a2c:	8140038f 	ldh	r5,14(r16)
  802a30:	d80d883a 	mov	r6,sp
  802a34:	8809883a 	mov	r4,r17
  802a38:	0802be00 	call	802be0 <_fstat_r>
  802a3c:	103f891e 	bne	r2,zero,802864 <__alt_mem_onchip_mem+0xff782864>
  802a40:	dd800417 	ldw	r22,16(sp)
  802a44:	adad883a 	add	r22,r21,r22
  802a48:	b83fc926 	beq	r23,zero,802970 <__alt_mem_onchip_mem+0xff782970>
  802a4c:	81400c17 	ldw	r5,48(r16)
  802a50:	81800117 	ldw	r6,4(r16)
  802a54:	28005026 	beq	r5,zero,802b98 <_fseeko_r+0x418>
  802a58:	81c00f17 	ldw	r7,60(r16)
  802a5c:	003fce06 	br	802998 <__alt_mem_onchip_mem+0xff782998>
  802a60:	84c01317 	ldw	r19,76(r16)
  802a64:	81400717 	ldw	r5,28(r16)
  802a68:	000f883a 	mov	r7,zero
  802a6c:	04e7c83a 	sub	r19,zero,r19
  802a70:	9da6703a 	and	r19,r19,r22
  802a74:	980d883a 	mov	r6,r19
  802a78:	8809883a 	mov	r4,r17
  802a7c:	a03ee83a 	callr	r20
  802a80:	00ffffc4 	movi	r3,-1
  802a84:	10ff7726 	beq	r2,r3,802864 <__alt_mem_onchip_mem+0xff782864>
  802a88:	80800417 	ldw	r2,16(r16)
  802a8c:	81400c17 	ldw	r5,48(r16)
  802a90:	80000115 	stw	zero,4(r16)
  802a94:	80800015 	stw	r2,0(r16)
  802a98:	28000526 	beq	r5,zero,802ab0 <_fseeko_r+0x330>
  802a9c:	80801004 	addi	r2,r16,64
  802aa0:	28800226 	beq	r5,r2,802aac <_fseeko_r+0x32c>
  802aa4:	8809883a 	mov	r4,r17
  802aa8:	080877c0 	call	80877c <_free_r>
  802aac:	80000c15 	stw	zero,48(r16)
  802ab0:	8080030b 	ldhu	r2,12(r16)
  802ab4:	b4e7c83a 	sub	r19,r22,r19
  802ab8:	10bff7cc 	andi	r2,r2,65503
  802abc:	8080030d 	sth	r2,12(r16)
  802ac0:	98000b26 	beq	r19,zero,802af0 <_fseeko_r+0x370>
  802ac4:	800b883a 	mov	r5,r16
  802ac8:	8809883a 	mov	r4,r17
  802acc:	0803c4c0 	call	803c4c <__srefill_r>
  802ad0:	103f641e 	bne	r2,zero,802864 <__alt_mem_onchip_mem+0xff782864>
  802ad4:	80800117 	ldw	r2,4(r16)
  802ad8:	14ff6236 	bltu	r2,r19,802864 <__alt_mem_onchip_mem+0xff782864>
  802adc:	80c00017 	ldw	r3,0(r16)
  802ae0:	14c5c83a 	sub	r2,r2,r19
  802ae4:	80800115 	stw	r2,4(r16)
  802ae8:	1ce7883a 	add	r19,r3,r19
  802aec:	84c00015 	stw	r19,0(r16)
  802af0:	01800204 	movi	r6,8
  802af4:	000b883a 	mov	r5,zero
  802af8:	81001704 	addi	r4,r16,92
  802afc:	08038b40 	call	8038b4 <memset>
  802b00:	0027883a 	mov	r19,zero
  802b04:	003f3d06 	br	8027fc <__alt_mem_onchip_mem+0xff7827fc>
  802b08:	80800417 	ldw	r2,16(r16)
  802b0c:	003f8306 	br	80291c <__alt_mem_onchip_mem+0xff78291c>
  802b10:	81400717 	ldw	r5,28(r16)
  802b14:	900f883a 	mov	r7,r18
  802b18:	000d883a 	mov	r6,zero
  802b1c:	8809883a 	mov	r4,r17
  802b20:	a03ee83a 	callr	r20
  802b24:	1027883a 	mov	r19,r2
  802b28:	00bfffc4 	movi	r2,-1
  802b2c:	98bf3226 	beq	r19,r2,8027f8 <__alt_mem_onchip_mem+0xff7827f8>
  802b30:	8080030b 	ldhu	r2,12(r16)
  802b34:	003f7006 	br	8028f8 <__alt_mem_onchip_mem+0xff7828f8>
  802b38:	8140038f 	ldh	r5,14(r16)
  802b3c:	283f4716 	blt	r5,zero,80285c <__alt_mem_onchip_mem+0xff78285c>
  802b40:	d80d883a 	mov	r6,sp
  802b44:	8809883a 	mov	r4,r17
  802b48:	0802be00 	call	802be0 <_fstat_r>
  802b4c:	1000041e 	bne	r2,zero,802b60 <_fseeko_r+0x3e0>
  802b50:	d8800117 	ldw	r2,4(sp)
  802b54:	00e00014 	movui	r3,32768
  802b58:	10bc000c 	andi	r2,r2,61440
  802b5c:	10ff7c26 	beq	r2,r3,802950 <__alt_mem_onchip_mem+0xff782950>
  802b60:	8080030b 	ldhu	r2,12(r16)
  802b64:	003f3d06 	br	80285c <__alt_mem_onchip_mem+0xff78285c>
  802b68:	800b883a 	mov	r5,r16
  802b6c:	8809883a 	mov	r4,r17
  802b70:	0802ec40 	call	802ec4 <__smakebuf_r>
  802b74:	003f3106 	br	80283c <__alt_mem_onchip_mem+0xff78283c>
  802b78:	81400717 	ldw	r5,28(r16)
  802b7c:	01c00044 	movi	r7,1
  802b80:	000d883a 	mov	r6,zero
  802b84:	8809883a 	mov	r4,r17
  802b88:	a03ee83a 	callr	r20
  802b8c:	00ffffc4 	movi	r3,-1
  802b90:	10ff7b1e 	bne	r2,r3,802980 <__alt_mem_onchip_mem+0xff782980>
  802b94:	003f3306 	br	802864 <__alt_mem_onchip_mem+0xff782864>
  802b98:	80c00017 	ldw	r3,0(r16)
  802b9c:	80800417 	ldw	r2,16(r16)
  802ba0:	000b883a 	mov	r5,zero
  802ba4:	1887c83a 	sub	r3,r3,r2
  802ba8:	98e7c83a 	sub	r19,r19,r3
  802bac:	30c7883a 	add	r3,r6,r3
  802bb0:	003f7f06 	br	8029b0 <__alt_mem_onchip_mem+0xff7829b0>
  802bb4:	00800744 	movi	r2,29
  802bb8:	88800015 	stw	r2,0(r17)
  802bbc:	04ffffc4 	movi	r19,-1
  802bc0:	003f0e06 	br	8027fc <__alt_mem_onchip_mem+0xff7827fc>

00802bc4 <fseeko>:
  802bc4:	00802074 	movhi	r2,129
  802bc8:	10982204 	addi	r2,r2,24712
  802bcc:	300f883a 	mov	r7,r6
  802bd0:	280d883a 	mov	r6,r5
  802bd4:	200b883a 	mov	r5,r4
  802bd8:	11000017 	ldw	r4,0(r2)
  802bdc:	08027801 	jmpi	802780 <_fseeko_r>

00802be0 <_fstat_r>:
  802be0:	defffd04 	addi	sp,sp,-12
  802be4:	2805883a 	mov	r2,r5
  802be8:	dc000015 	stw	r16,0(sp)
  802bec:	04002074 	movhi	r16,129
  802bf0:	dc400115 	stw	r17,4(sp)
  802bf4:	841f8304 	addi	r16,r16,32268
  802bf8:	2023883a 	mov	r17,r4
  802bfc:	300b883a 	mov	r5,r6
  802c00:	1009883a 	mov	r4,r2
  802c04:	dfc00215 	stw	ra,8(sp)
  802c08:	80000015 	stw	zero,0(r16)
  802c0c:	080fc700 	call	80fc70 <fstat>
  802c10:	00ffffc4 	movi	r3,-1
  802c14:	10c00526 	beq	r2,r3,802c2c <_fstat_r+0x4c>
  802c18:	dfc00217 	ldw	ra,8(sp)
  802c1c:	dc400117 	ldw	r17,4(sp)
  802c20:	dc000017 	ldw	r16,0(sp)
  802c24:	dec00304 	addi	sp,sp,12
  802c28:	f800283a 	ret
  802c2c:	80c00017 	ldw	r3,0(r16)
  802c30:	183ff926 	beq	r3,zero,802c18 <__alt_mem_onchip_mem+0xff782c18>
  802c34:	88c00015 	stw	r3,0(r17)
  802c38:	003ff706 	br	802c18 <__alt_mem_onchip_mem+0xff782c18>

00802c3c <_fwalk>:
  802c3c:	defff704 	addi	sp,sp,-36
  802c40:	dd000415 	stw	r20,16(sp)
  802c44:	dfc00815 	stw	ra,32(sp)
  802c48:	ddc00715 	stw	r23,28(sp)
  802c4c:	dd800615 	stw	r22,24(sp)
  802c50:	dd400515 	stw	r21,20(sp)
  802c54:	dcc00315 	stw	r19,12(sp)
  802c58:	dc800215 	stw	r18,8(sp)
  802c5c:	dc400115 	stw	r17,4(sp)
  802c60:	dc000015 	stw	r16,0(sp)
  802c64:	2500b804 	addi	r20,r4,736
  802c68:	a0002326 	beq	r20,zero,802cf8 <_fwalk+0xbc>
  802c6c:	282b883a 	mov	r21,r5
  802c70:	002f883a 	mov	r23,zero
  802c74:	05800044 	movi	r22,1
  802c78:	04ffffc4 	movi	r19,-1
  802c7c:	a4400117 	ldw	r17,4(r20)
  802c80:	a4800217 	ldw	r18,8(r20)
  802c84:	8c7fffc4 	addi	r17,r17,-1
  802c88:	88000d16 	blt	r17,zero,802cc0 <_fwalk+0x84>
  802c8c:	94000304 	addi	r16,r18,12
  802c90:	94800384 	addi	r18,r18,14
  802c94:	8080000b 	ldhu	r2,0(r16)
  802c98:	8c7fffc4 	addi	r17,r17,-1
  802c9c:	813ffd04 	addi	r4,r16,-12
  802ca0:	b080042e 	bgeu	r22,r2,802cb4 <_fwalk+0x78>
  802ca4:	9080000f 	ldh	r2,0(r18)
  802ca8:	14c00226 	beq	r2,r19,802cb4 <_fwalk+0x78>
  802cac:	a83ee83a 	callr	r21
  802cb0:	b8aeb03a 	or	r23,r23,r2
  802cb4:	84001a04 	addi	r16,r16,104
  802cb8:	94801a04 	addi	r18,r18,104
  802cbc:	8cfff51e 	bne	r17,r19,802c94 <__alt_mem_onchip_mem+0xff782c94>
  802cc0:	a5000017 	ldw	r20,0(r20)
  802cc4:	a03fed1e 	bne	r20,zero,802c7c <__alt_mem_onchip_mem+0xff782c7c>
  802cc8:	b805883a 	mov	r2,r23
  802ccc:	dfc00817 	ldw	ra,32(sp)
  802cd0:	ddc00717 	ldw	r23,28(sp)
  802cd4:	dd800617 	ldw	r22,24(sp)
  802cd8:	dd400517 	ldw	r21,20(sp)
  802cdc:	dd000417 	ldw	r20,16(sp)
  802ce0:	dcc00317 	ldw	r19,12(sp)
  802ce4:	dc800217 	ldw	r18,8(sp)
  802ce8:	dc400117 	ldw	r17,4(sp)
  802cec:	dc000017 	ldw	r16,0(sp)
  802cf0:	dec00904 	addi	sp,sp,36
  802cf4:	f800283a 	ret
  802cf8:	002f883a 	mov	r23,zero
  802cfc:	003ff206 	br	802cc8 <__alt_mem_onchip_mem+0xff782cc8>

00802d00 <_fwalk_reent>:
  802d00:	defff704 	addi	sp,sp,-36
  802d04:	dd000415 	stw	r20,16(sp)
  802d08:	dfc00815 	stw	ra,32(sp)
  802d0c:	ddc00715 	stw	r23,28(sp)
  802d10:	dd800615 	stw	r22,24(sp)
  802d14:	dd400515 	stw	r21,20(sp)
  802d18:	dcc00315 	stw	r19,12(sp)
  802d1c:	dc800215 	stw	r18,8(sp)
  802d20:	dc400115 	stw	r17,4(sp)
  802d24:	dc000015 	stw	r16,0(sp)
  802d28:	2500b804 	addi	r20,r4,736
  802d2c:	a0002326 	beq	r20,zero,802dbc <_fwalk_reent+0xbc>
  802d30:	282b883a 	mov	r21,r5
  802d34:	2027883a 	mov	r19,r4
  802d38:	002f883a 	mov	r23,zero
  802d3c:	05800044 	movi	r22,1
  802d40:	04bfffc4 	movi	r18,-1
  802d44:	a4400117 	ldw	r17,4(r20)
  802d48:	a4000217 	ldw	r16,8(r20)
  802d4c:	8c7fffc4 	addi	r17,r17,-1
  802d50:	88000c16 	blt	r17,zero,802d84 <_fwalk_reent+0x84>
  802d54:	84000304 	addi	r16,r16,12
  802d58:	8080000b 	ldhu	r2,0(r16)
  802d5c:	8c7fffc4 	addi	r17,r17,-1
  802d60:	817ffd04 	addi	r5,r16,-12
  802d64:	b080052e 	bgeu	r22,r2,802d7c <_fwalk_reent+0x7c>
  802d68:	8080008f 	ldh	r2,2(r16)
  802d6c:	9809883a 	mov	r4,r19
  802d70:	14800226 	beq	r2,r18,802d7c <_fwalk_reent+0x7c>
  802d74:	a83ee83a 	callr	r21
  802d78:	b8aeb03a 	or	r23,r23,r2
  802d7c:	84001a04 	addi	r16,r16,104
  802d80:	8cbff51e 	bne	r17,r18,802d58 <__alt_mem_onchip_mem+0xff782d58>
  802d84:	a5000017 	ldw	r20,0(r20)
  802d88:	a03fee1e 	bne	r20,zero,802d44 <__alt_mem_onchip_mem+0xff782d44>
  802d8c:	b805883a 	mov	r2,r23
  802d90:	dfc00817 	ldw	ra,32(sp)
  802d94:	ddc00717 	ldw	r23,28(sp)
  802d98:	dd800617 	ldw	r22,24(sp)
  802d9c:	dd400517 	ldw	r21,20(sp)
  802da0:	dd000417 	ldw	r20,16(sp)
  802da4:	dcc00317 	ldw	r19,12(sp)
  802da8:	dc800217 	ldw	r18,8(sp)
  802dac:	dc400117 	ldw	r17,4(sp)
  802db0:	dc000017 	ldw	r16,0(sp)
  802db4:	dec00904 	addi	sp,sp,36
  802db8:	f800283a 	ret
  802dbc:	002f883a 	mov	r23,zero
  802dc0:	003ff206 	br	802d8c <__alt_mem_onchip_mem+0xff782d8c>

00802dc4 <_fwrite_r>:
  802dc4:	defff504 	addi	sp,sp,-44
  802dc8:	dc800815 	stw	r18,32(sp)
  802dcc:	39a5383a 	mul	r18,r7,r6
  802dd0:	d8800304 	addi	r2,sp,12
  802dd4:	d8800015 	stw	r2,0(sp)
  802dd8:	00800044 	movi	r2,1
  802ddc:	dcc00915 	stw	r19,36(sp)
  802de0:	dc400715 	stw	r17,28(sp)
  802de4:	dc000615 	stw	r16,24(sp)
  802de8:	d9400315 	stw	r5,12(sp)
  802dec:	dfc00a15 	stw	ra,40(sp)
  802df0:	dc800415 	stw	r18,16(sp)
  802df4:	dc800215 	stw	r18,8(sp)
  802df8:	d8800115 	stw	r2,4(sp)
  802dfc:	3027883a 	mov	r19,r6
  802e00:	3821883a 	mov	r16,r7
  802e04:	2023883a 	mov	r17,r4
  802e08:	d9400b17 	ldw	r5,44(sp)
  802e0c:	20000226 	beq	r4,zero,802e18 <_fwrite_r+0x54>
  802e10:	20800e17 	ldw	r2,56(r4)
  802e14:	10001a26 	beq	r2,zero,802e80 <_fwrite_r+0xbc>
  802e18:	2880030b 	ldhu	r2,12(r5)
  802e1c:	10c8000c 	andi	r3,r2,8192
  802e20:	1800061e 	bne	r3,zero,802e3c <_fwrite_r+0x78>
  802e24:	29001917 	ldw	r4,100(r5)
  802e28:	00f7ffc4 	movi	r3,-8193
  802e2c:	10880014 	ori	r2,r2,8192
  802e30:	20c6703a 	and	r3,r4,r3
  802e34:	2880030d 	sth	r2,12(r5)
  802e38:	28c01915 	stw	r3,100(r5)
  802e3c:	d80d883a 	mov	r6,sp
  802e40:	8809883a 	mov	r4,r17
  802e44:	0808a8c0 	call	808a8c <__sfvwrite_r>
  802e48:	10000b26 	beq	r2,zero,802e78 <_fwrite_r+0xb4>
  802e4c:	d9000217 	ldw	r4,8(sp)
  802e50:	980b883a 	mov	r5,r19
  802e54:	9109c83a 	sub	r4,r18,r4
  802e58:	080d2ac0 	call	80d2ac <__udivsi3>
  802e5c:	dfc00a17 	ldw	ra,40(sp)
  802e60:	dcc00917 	ldw	r19,36(sp)
  802e64:	dc800817 	ldw	r18,32(sp)
  802e68:	dc400717 	ldw	r17,28(sp)
  802e6c:	dc000617 	ldw	r16,24(sp)
  802e70:	dec00b04 	addi	sp,sp,44
  802e74:	f800283a 	ret
  802e78:	8005883a 	mov	r2,r16
  802e7c:	003ff706 	br	802e5c <__alt_mem_onchip_mem+0xff782e5c>
  802e80:	d9400515 	stw	r5,20(sp)
  802e84:	08025180 	call	802518 <__sinit>
  802e88:	d9400517 	ldw	r5,20(sp)
  802e8c:	003fe206 	br	802e18 <__alt_mem_onchip_mem+0xff782e18>

00802e90 <fwrite>:
  802e90:	defffe04 	addi	sp,sp,-8
  802e94:	00802074 	movhi	r2,129
  802e98:	d9c00015 	stw	r7,0(sp)
  802e9c:	10982204 	addi	r2,r2,24712
  802ea0:	300f883a 	mov	r7,r6
  802ea4:	280d883a 	mov	r6,r5
  802ea8:	200b883a 	mov	r5,r4
  802eac:	11000017 	ldw	r4,0(r2)
  802eb0:	dfc00115 	stw	ra,4(sp)
  802eb4:	0802dc40 	call	802dc4 <_fwrite_r>
  802eb8:	dfc00117 	ldw	ra,4(sp)
  802ebc:	dec00204 	addi	sp,sp,8
  802ec0:	f800283a 	ret

00802ec4 <__smakebuf_r>:
  802ec4:	2880030b 	ldhu	r2,12(r5)
  802ec8:	10c0008c 	andi	r3,r2,2
  802ecc:	1800411e 	bne	r3,zero,802fd4 <__smakebuf_r+0x110>
  802ed0:	deffec04 	addi	sp,sp,-80
  802ed4:	dc000f15 	stw	r16,60(sp)
  802ed8:	2821883a 	mov	r16,r5
  802edc:	2940038f 	ldh	r5,14(r5)
  802ee0:	dc401015 	stw	r17,64(sp)
  802ee4:	dfc01315 	stw	ra,76(sp)
  802ee8:	dcc01215 	stw	r19,72(sp)
  802eec:	dc801115 	stw	r18,68(sp)
  802ef0:	2023883a 	mov	r17,r4
  802ef4:	28001c16 	blt	r5,zero,802f68 <__smakebuf_r+0xa4>
  802ef8:	d80d883a 	mov	r6,sp
  802efc:	0802be00 	call	802be0 <_fstat_r>
  802f00:	10001816 	blt	r2,zero,802f64 <__smakebuf_r+0xa0>
  802f04:	d8800117 	ldw	r2,4(sp)
  802f08:	00e00014 	movui	r3,32768
  802f0c:	10bc000c 	andi	r2,r2,61440
  802f10:	14c80020 	cmpeqi	r19,r2,8192
  802f14:	10c03726 	beq	r2,r3,802ff4 <__smakebuf_r+0x130>
  802f18:	80c0030b 	ldhu	r3,12(r16)
  802f1c:	18c20014 	ori	r3,r3,2048
  802f20:	80c0030d 	sth	r3,12(r16)
  802f24:	00c80004 	movi	r3,8192
  802f28:	10c0521e 	bne	r2,r3,803074 <__smakebuf_r+0x1b0>
  802f2c:	8140038f 	ldh	r5,14(r16)
  802f30:	8809883a 	mov	r4,r17
  802f34:	0808f480 	call	808f48 <_isatty_r>
  802f38:	10004c26 	beq	r2,zero,80306c <__smakebuf_r+0x1a8>
  802f3c:	8080030b 	ldhu	r2,12(r16)
  802f40:	80c010c4 	addi	r3,r16,67
  802f44:	80c00015 	stw	r3,0(r16)
  802f48:	10800054 	ori	r2,r2,1
  802f4c:	8080030d 	sth	r2,12(r16)
  802f50:	00800044 	movi	r2,1
  802f54:	80c00415 	stw	r3,16(r16)
  802f58:	80800515 	stw	r2,20(r16)
  802f5c:	04810004 	movi	r18,1024
  802f60:	00000706 	br	802f80 <__smakebuf_r+0xbc>
  802f64:	8080030b 	ldhu	r2,12(r16)
  802f68:	10c0200c 	andi	r3,r2,128
  802f6c:	18001f1e 	bne	r3,zero,802fec <__smakebuf_r+0x128>
  802f70:	04810004 	movi	r18,1024
  802f74:	10820014 	ori	r2,r2,2048
  802f78:	8080030d 	sth	r2,12(r16)
  802f7c:	0027883a 	mov	r19,zero
  802f80:	900b883a 	mov	r5,r18
  802f84:	8809883a 	mov	r4,r17
  802f88:	08030a80 	call	8030a8 <_malloc_r>
  802f8c:	10002c26 	beq	r2,zero,803040 <__smakebuf_r+0x17c>
  802f90:	80c0030b 	ldhu	r3,12(r16)
  802f94:	01002034 	movhi	r4,128
  802f98:	21087404 	addi	r4,r4,8656
  802f9c:	89000f15 	stw	r4,60(r17)
  802fa0:	18c02014 	ori	r3,r3,128
  802fa4:	80c0030d 	sth	r3,12(r16)
  802fa8:	80800015 	stw	r2,0(r16)
  802fac:	80800415 	stw	r2,16(r16)
  802fb0:	84800515 	stw	r18,20(r16)
  802fb4:	98001a1e 	bne	r19,zero,803020 <__smakebuf_r+0x15c>
  802fb8:	dfc01317 	ldw	ra,76(sp)
  802fbc:	dcc01217 	ldw	r19,72(sp)
  802fc0:	dc801117 	ldw	r18,68(sp)
  802fc4:	dc401017 	ldw	r17,64(sp)
  802fc8:	dc000f17 	ldw	r16,60(sp)
  802fcc:	dec01404 	addi	sp,sp,80
  802fd0:	f800283a 	ret
  802fd4:	288010c4 	addi	r2,r5,67
  802fd8:	28800015 	stw	r2,0(r5)
  802fdc:	28800415 	stw	r2,16(r5)
  802fe0:	00800044 	movi	r2,1
  802fe4:	28800515 	stw	r2,20(r5)
  802fe8:	f800283a 	ret
  802fec:	04801004 	movi	r18,64
  802ff0:	003fe006 	br	802f74 <__alt_mem_onchip_mem+0xff782f74>
  802ff4:	81000a17 	ldw	r4,40(r16)
  802ff8:	00c02034 	movhi	r3,128
  802ffc:	18cff504 	addi	r3,r3,16340
  803000:	20ffc51e 	bne	r4,r3,802f18 <__alt_mem_onchip_mem+0xff782f18>
  803004:	8080030b 	ldhu	r2,12(r16)
  803008:	04810004 	movi	r18,1024
  80300c:	84801315 	stw	r18,76(r16)
  803010:	1484b03a 	or	r2,r2,r18
  803014:	8080030d 	sth	r2,12(r16)
  803018:	0027883a 	mov	r19,zero
  80301c:	003fd806 	br	802f80 <__alt_mem_onchip_mem+0xff782f80>
  803020:	8140038f 	ldh	r5,14(r16)
  803024:	8809883a 	mov	r4,r17
  803028:	0808f480 	call	808f48 <_isatty_r>
  80302c:	103fe226 	beq	r2,zero,802fb8 <__alt_mem_onchip_mem+0xff782fb8>
  803030:	8080030b 	ldhu	r2,12(r16)
  803034:	10800054 	ori	r2,r2,1
  803038:	8080030d 	sth	r2,12(r16)
  80303c:	003fde06 	br	802fb8 <__alt_mem_onchip_mem+0xff782fb8>
  803040:	8080030b 	ldhu	r2,12(r16)
  803044:	10c0800c 	andi	r3,r2,512
  803048:	183fdb1e 	bne	r3,zero,802fb8 <__alt_mem_onchip_mem+0xff782fb8>
  80304c:	10800094 	ori	r2,r2,2
  803050:	80c010c4 	addi	r3,r16,67
  803054:	8080030d 	sth	r2,12(r16)
  803058:	00800044 	movi	r2,1
  80305c:	80c00015 	stw	r3,0(r16)
  803060:	80c00415 	stw	r3,16(r16)
  803064:	80800515 	stw	r2,20(r16)
  803068:	003fd306 	br	802fb8 <__alt_mem_onchip_mem+0xff782fb8>
  80306c:	04810004 	movi	r18,1024
  803070:	003fc306 	br	802f80 <__alt_mem_onchip_mem+0xff782f80>
  803074:	0027883a 	mov	r19,zero
  803078:	04810004 	movi	r18,1024
  80307c:	003fc006 	br	802f80 <__alt_mem_onchip_mem+0xff782f80>

00803080 <malloc>:
  803080:	00802074 	movhi	r2,129
  803084:	10982204 	addi	r2,r2,24712
  803088:	200b883a 	mov	r5,r4
  80308c:	11000017 	ldw	r4,0(r2)
  803090:	08030a81 	jmpi	8030a8 <_malloc_r>

00803094 <free>:
  803094:	00802074 	movhi	r2,129
  803098:	10982204 	addi	r2,r2,24712
  80309c:	200b883a 	mov	r5,r4
  8030a0:	11000017 	ldw	r4,0(r2)
  8030a4:	080877c1 	jmpi	80877c <_free_r>

008030a8 <_malloc_r>:
  8030a8:	defff504 	addi	sp,sp,-44
  8030ac:	dc800315 	stw	r18,12(sp)
  8030b0:	dfc00a15 	stw	ra,40(sp)
  8030b4:	df000915 	stw	fp,36(sp)
  8030b8:	ddc00815 	stw	r23,32(sp)
  8030bc:	dd800715 	stw	r22,28(sp)
  8030c0:	dd400615 	stw	r21,24(sp)
  8030c4:	dd000515 	stw	r20,20(sp)
  8030c8:	dcc00415 	stw	r19,16(sp)
  8030cc:	dc400215 	stw	r17,8(sp)
  8030d0:	dc000115 	stw	r16,4(sp)
  8030d4:	288002c4 	addi	r2,r5,11
  8030d8:	00c00584 	movi	r3,22
  8030dc:	2025883a 	mov	r18,r4
  8030e0:	18807f2e 	bgeu	r3,r2,8032e0 <_malloc_r+0x238>
  8030e4:	047ffe04 	movi	r17,-8
  8030e8:	1462703a 	and	r17,r2,r17
  8030ec:	8800a316 	blt	r17,zero,80337c <_malloc_r+0x2d4>
  8030f0:	8940a236 	bltu	r17,r5,80337c <_malloc_r+0x2d4>
  8030f4:	08101f80 	call	8101f8 <__malloc_lock>
  8030f8:	00807dc4 	movi	r2,503
  8030fc:	1441e92e 	bgeu	r2,r17,8038a4 <_malloc_r+0x7fc>
  803100:	8804d27a 	srli	r2,r17,9
  803104:	1000a126 	beq	r2,zero,80338c <_malloc_r+0x2e4>
  803108:	00c00104 	movi	r3,4
  80310c:	18811e36 	bltu	r3,r2,803588 <_malloc_r+0x4e0>
  803110:	8804d1ba 	srli	r2,r17,6
  803114:	12000e44 	addi	r8,r2,57
  803118:	11c00e04 	addi	r7,r2,56
  80311c:	4209883a 	add	r4,r8,r8
  803120:	04c02074 	movhi	r19,129
  803124:	2109883a 	add	r4,r4,r4
  803128:	9cd1fd04 	addi	r19,r19,18420
  80312c:	2109883a 	add	r4,r4,r4
  803130:	9909883a 	add	r4,r19,r4
  803134:	24000117 	ldw	r16,4(r4)
  803138:	213ffe04 	addi	r4,r4,-8
  80313c:	24009726 	beq	r4,r16,80339c <_malloc_r+0x2f4>
  803140:	80800117 	ldw	r2,4(r16)
  803144:	01bfff04 	movi	r6,-4
  803148:	014003c4 	movi	r5,15
  80314c:	1184703a 	and	r2,r2,r6
  803150:	1447c83a 	sub	r3,r2,r17
  803154:	28c00716 	blt	r5,r3,803174 <_malloc_r+0xcc>
  803158:	1800920e 	bge	r3,zero,8033a4 <_malloc_r+0x2fc>
  80315c:	84000317 	ldw	r16,12(r16)
  803160:	24008e26 	beq	r4,r16,80339c <_malloc_r+0x2f4>
  803164:	80800117 	ldw	r2,4(r16)
  803168:	1184703a 	and	r2,r2,r6
  80316c:	1447c83a 	sub	r3,r2,r17
  803170:	28fff90e 	bge	r5,r3,803158 <__alt_mem_onchip_mem+0xff783158>
  803174:	3809883a 	mov	r4,r7
  803178:	01802074 	movhi	r6,129
  80317c:	9c000417 	ldw	r16,16(r19)
  803180:	3191fd04 	addi	r6,r6,18420
  803184:	32000204 	addi	r8,r6,8
  803188:	82013426 	beq	r16,r8,80365c <_malloc_r+0x5b4>
  80318c:	80c00117 	ldw	r3,4(r16)
  803190:	00bfff04 	movi	r2,-4
  803194:	188e703a 	and	r7,r3,r2
  803198:	3c45c83a 	sub	r2,r7,r17
  80319c:	00c003c4 	movi	r3,15
  8031a0:	18811f16 	blt	r3,r2,803620 <_malloc_r+0x578>
  8031a4:	32000515 	stw	r8,20(r6)
  8031a8:	32000415 	stw	r8,16(r6)
  8031ac:	10007f0e 	bge	r2,zero,8033ac <_malloc_r+0x304>
  8031b0:	00807fc4 	movi	r2,511
  8031b4:	11c0fd36 	bltu	r2,r7,8035ac <_malloc_r+0x504>
  8031b8:	3806d0fa 	srli	r3,r7,3
  8031bc:	01c00044 	movi	r7,1
  8031c0:	30800117 	ldw	r2,4(r6)
  8031c4:	19400044 	addi	r5,r3,1
  8031c8:	294b883a 	add	r5,r5,r5
  8031cc:	1807d0ba 	srai	r3,r3,2
  8031d0:	294b883a 	add	r5,r5,r5
  8031d4:	294b883a 	add	r5,r5,r5
  8031d8:	298b883a 	add	r5,r5,r6
  8031dc:	38c6983a 	sll	r3,r7,r3
  8031e0:	29c00017 	ldw	r7,0(r5)
  8031e4:	2a7ffe04 	addi	r9,r5,-8
  8031e8:	1886b03a 	or	r3,r3,r2
  8031ec:	82400315 	stw	r9,12(r16)
  8031f0:	81c00215 	stw	r7,8(r16)
  8031f4:	30c00115 	stw	r3,4(r6)
  8031f8:	2c000015 	stw	r16,0(r5)
  8031fc:	3c000315 	stw	r16,12(r7)
  803200:	2005d0ba 	srai	r2,r4,2
  803204:	01400044 	movi	r5,1
  803208:	288a983a 	sll	r5,r5,r2
  80320c:	19406f36 	bltu	r3,r5,8033cc <_malloc_r+0x324>
  803210:	28c4703a 	and	r2,r5,r3
  803214:	10000a1e 	bne	r2,zero,803240 <_malloc_r+0x198>
  803218:	00bfff04 	movi	r2,-4
  80321c:	294b883a 	add	r5,r5,r5
  803220:	2088703a 	and	r4,r4,r2
  803224:	28c4703a 	and	r2,r5,r3
  803228:	21000104 	addi	r4,r4,4
  80322c:	1000041e 	bne	r2,zero,803240 <_malloc_r+0x198>
  803230:	294b883a 	add	r5,r5,r5
  803234:	28c4703a 	and	r2,r5,r3
  803238:	21000104 	addi	r4,r4,4
  80323c:	103ffc26 	beq	r2,zero,803230 <__alt_mem_onchip_mem+0xff783230>
  803240:	02bfff04 	movi	r10,-4
  803244:	024003c4 	movi	r9,15
  803248:	21800044 	addi	r6,r4,1
  80324c:	318d883a 	add	r6,r6,r6
  803250:	318d883a 	add	r6,r6,r6
  803254:	318d883a 	add	r6,r6,r6
  803258:	998d883a 	add	r6,r19,r6
  80325c:	333ffe04 	addi	r12,r6,-8
  803260:	2017883a 	mov	r11,r4
  803264:	31800104 	addi	r6,r6,4
  803268:	34000017 	ldw	r16,0(r6)
  80326c:	31fffd04 	addi	r7,r6,-12
  803270:	81c0041e 	bne	r16,r7,803284 <_malloc_r+0x1dc>
  803274:	0000fb06 	br	803664 <_malloc_r+0x5bc>
  803278:	1801030e 	bge	r3,zero,803688 <_malloc_r+0x5e0>
  80327c:	84000317 	ldw	r16,12(r16)
  803280:	81c0f826 	beq	r16,r7,803664 <_malloc_r+0x5bc>
  803284:	80800117 	ldw	r2,4(r16)
  803288:	1284703a 	and	r2,r2,r10
  80328c:	1447c83a 	sub	r3,r2,r17
  803290:	48fff90e 	bge	r9,r3,803278 <__alt_mem_onchip_mem+0xff783278>
  803294:	80800317 	ldw	r2,12(r16)
  803298:	81000217 	ldw	r4,8(r16)
  80329c:	89400054 	ori	r5,r17,1
  8032a0:	81400115 	stw	r5,4(r16)
  8032a4:	20800315 	stw	r2,12(r4)
  8032a8:	11000215 	stw	r4,8(r2)
  8032ac:	8463883a 	add	r17,r16,r17
  8032b0:	9c400515 	stw	r17,20(r19)
  8032b4:	9c400415 	stw	r17,16(r19)
  8032b8:	18800054 	ori	r2,r3,1
  8032bc:	88800115 	stw	r2,4(r17)
  8032c0:	8a000315 	stw	r8,12(r17)
  8032c4:	8a000215 	stw	r8,8(r17)
  8032c8:	88e3883a 	add	r17,r17,r3
  8032cc:	88c00015 	stw	r3,0(r17)
  8032d0:	9009883a 	mov	r4,r18
  8032d4:	081021c0 	call	81021c <__malloc_unlock>
  8032d8:	80800204 	addi	r2,r16,8
  8032dc:	00001b06 	br	80334c <_malloc_r+0x2a4>
  8032e0:	04400404 	movi	r17,16
  8032e4:	89402536 	bltu	r17,r5,80337c <_malloc_r+0x2d4>
  8032e8:	08101f80 	call	8101f8 <__malloc_lock>
  8032ec:	00800184 	movi	r2,6
  8032f0:	01000084 	movi	r4,2
  8032f4:	04c02074 	movhi	r19,129
  8032f8:	1085883a 	add	r2,r2,r2
  8032fc:	9cd1fd04 	addi	r19,r19,18420
  803300:	1085883a 	add	r2,r2,r2
  803304:	9885883a 	add	r2,r19,r2
  803308:	14000117 	ldw	r16,4(r2)
  80330c:	10fffe04 	addi	r3,r2,-8
  803310:	80c0d926 	beq	r16,r3,803678 <_malloc_r+0x5d0>
  803314:	80c00117 	ldw	r3,4(r16)
  803318:	81000317 	ldw	r4,12(r16)
  80331c:	00bfff04 	movi	r2,-4
  803320:	1884703a 	and	r2,r3,r2
  803324:	81400217 	ldw	r5,8(r16)
  803328:	8085883a 	add	r2,r16,r2
  80332c:	10c00117 	ldw	r3,4(r2)
  803330:	29000315 	stw	r4,12(r5)
  803334:	21400215 	stw	r5,8(r4)
  803338:	18c00054 	ori	r3,r3,1
  80333c:	10c00115 	stw	r3,4(r2)
  803340:	9009883a 	mov	r4,r18
  803344:	081021c0 	call	81021c <__malloc_unlock>
  803348:	80800204 	addi	r2,r16,8
  80334c:	dfc00a17 	ldw	ra,40(sp)
  803350:	df000917 	ldw	fp,36(sp)
  803354:	ddc00817 	ldw	r23,32(sp)
  803358:	dd800717 	ldw	r22,28(sp)
  80335c:	dd400617 	ldw	r21,24(sp)
  803360:	dd000517 	ldw	r20,20(sp)
  803364:	dcc00417 	ldw	r19,16(sp)
  803368:	dc800317 	ldw	r18,12(sp)
  80336c:	dc400217 	ldw	r17,8(sp)
  803370:	dc000117 	ldw	r16,4(sp)
  803374:	dec00b04 	addi	sp,sp,44
  803378:	f800283a 	ret
  80337c:	00800304 	movi	r2,12
  803380:	90800015 	stw	r2,0(r18)
  803384:	0005883a 	mov	r2,zero
  803388:	003ff006 	br	80334c <__alt_mem_onchip_mem+0xff78334c>
  80338c:	01002004 	movi	r4,128
  803390:	02001004 	movi	r8,64
  803394:	01c00fc4 	movi	r7,63
  803398:	003f6106 	br	803120 <__alt_mem_onchip_mem+0xff783120>
  80339c:	4009883a 	mov	r4,r8
  8033a0:	003f7506 	br	803178 <__alt_mem_onchip_mem+0xff783178>
  8033a4:	81000317 	ldw	r4,12(r16)
  8033a8:	003fde06 	br	803324 <__alt_mem_onchip_mem+0xff783324>
  8033ac:	81c5883a 	add	r2,r16,r7
  8033b0:	11400117 	ldw	r5,4(r2)
  8033b4:	9009883a 	mov	r4,r18
  8033b8:	29400054 	ori	r5,r5,1
  8033bc:	11400115 	stw	r5,4(r2)
  8033c0:	081021c0 	call	81021c <__malloc_unlock>
  8033c4:	80800204 	addi	r2,r16,8
  8033c8:	003fe006 	br	80334c <__alt_mem_onchip_mem+0xff78334c>
  8033cc:	9c000217 	ldw	r16,8(r19)
  8033d0:	00bfff04 	movi	r2,-4
  8033d4:	85800117 	ldw	r22,4(r16)
  8033d8:	b0ac703a 	and	r22,r22,r2
  8033dc:	b4400336 	bltu	r22,r17,8033ec <_malloc_r+0x344>
  8033e0:	b445c83a 	sub	r2,r22,r17
  8033e4:	00c003c4 	movi	r3,15
  8033e8:	18805d16 	blt	r3,r2,803560 <_malloc_r+0x4b8>
  8033ec:	05c02074 	movhi	r23,129
  8033f0:	00802074 	movhi	r2,129
  8033f4:	109f8604 	addi	r2,r2,32280
  8033f8:	bdd82304 	addi	r23,r23,24716
  8033fc:	15400017 	ldw	r21,0(r2)
  803400:	b8c00017 	ldw	r3,0(r23)
  803404:	00bfffc4 	movi	r2,-1
  803408:	858d883a 	add	r6,r16,r22
  80340c:	8d6b883a 	add	r21,r17,r21
  803410:	1880ea26 	beq	r3,r2,8037bc <_malloc_r+0x714>
  803414:	ad4403c4 	addi	r21,r21,4111
  803418:	00bc0004 	movi	r2,-4096
  80341c:	a8aa703a 	and	r21,r21,r2
  803420:	a80b883a 	mov	r5,r21
  803424:	9009883a 	mov	r4,r18
  803428:	d9800015 	stw	r6,0(sp)
  80342c:	0803ea80 	call	803ea8 <_sbrk_r>
  803430:	1029883a 	mov	r20,r2
  803434:	00bfffc4 	movi	r2,-1
  803438:	d9800017 	ldw	r6,0(sp)
  80343c:	a080e826 	beq	r20,r2,8037e0 <_malloc_r+0x738>
  803440:	a180a636 	bltu	r20,r6,8036dc <_malloc_r+0x634>
  803444:	07002074 	movhi	fp,129
  803448:	e71f9104 	addi	fp,fp,32324
  80344c:	e0800017 	ldw	r2,0(fp)
  803450:	a887883a 	add	r3,r21,r2
  803454:	e0c00015 	stw	r3,0(fp)
  803458:	3500e626 	beq	r6,r20,8037f4 <_malloc_r+0x74c>
  80345c:	b9000017 	ldw	r4,0(r23)
  803460:	00bfffc4 	movi	r2,-1
  803464:	2080ee26 	beq	r4,r2,803820 <_malloc_r+0x778>
  803468:	a185c83a 	sub	r2,r20,r6
  80346c:	10c5883a 	add	r2,r2,r3
  803470:	e0800015 	stw	r2,0(fp)
  803474:	a0c001cc 	andi	r3,r20,7
  803478:	1800bc26 	beq	r3,zero,80376c <_malloc_r+0x6c4>
  80347c:	a0e9c83a 	sub	r20,r20,r3
  803480:	00840204 	movi	r2,4104
  803484:	a5000204 	addi	r20,r20,8
  803488:	10c7c83a 	sub	r3,r2,r3
  80348c:	a545883a 	add	r2,r20,r21
  803490:	1083ffcc 	andi	r2,r2,4095
  803494:	18abc83a 	sub	r21,r3,r2
  803498:	a80b883a 	mov	r5,r21
  80349c:	9009883a 	mov	r4,r18
  8034a0:	0803ea80 	call	803ea8 <_sbrk_r>
  8034a4:	00ffffc4 	movi	r3,-1
  8034a8:	10c0e126 	beq	r2,r3,803830 <_malloc_r+0x788>
  8034ac:	1505c83a 	sub	r2,r2,r20
  8034b0:	1545883a 	add	r2,r2,r21
  8034b4:	10800054 	ori	r2,r2,1
  8034b8:	e0c00017 	ldw	r3,0(fp)
  8034bc:	9d000215 	stw	r20,8(r19)
  8034c0:	a0800115 	stw	r2,4(r20)
  8034c4:	a8c7883a 	add	r3,r21,r3
  8034c8:	e0c00015 	stw	r3,0(fp)
  8034cc:	84c00e26 	beq	r16,r19,803508 <_malloc_r+0x460>
  8034d0:	018003c4 	movi	r6,15
  8034d4:	3580a72e 	bgeu	r6,r22,803774 <_malloc_r+0x6cc>
  8034d8:	81400117 	ldw	r5,4(r16)
  8034dc:	013ffe04 	movi	r4,-8
  8034e0:	b0bffd04 	addi	r2,r22,-12
  8034e4:	1104703a 	and	r2,r2,r4
  8034e8:	2900004c 	andi	r4,r5,1
  8034ec:	2088b03a 	or	r4,r4,r2
  8034f0:	81000115 	stw	r4,4(r16)
  8034f4:	01400144 	movi	r5,5
  8034f8:	8089883a 	add	r4,r16,r2
  8034fc:	21400115 	stw	r5,4(r4)
  803500:	21400215 	stw	r5,8(r4)
  803504:	3080cd36 	bltu	r6,r2,80383c <_malloc_r+0x794>
  803508:	00802074 	movhi	r2,129
  80350c:	109f8504 	addi	r2,r2,32276
  803510:	11000017 	ldw	r4,0(r2)
  803514:	20c0012e 	bgeu	r4,r3,80351c <_malloc_r+0x474>
  803518:	10c00015 	stw	r3,0(r2)
  80351c:	00802074 	movhi	r2,129
  803520:	109f8404 	addi	r2,r2,32272
  803524:	11000017 	ldw	r4,0(r2)
  803528:	9c000217 	ldw	r16,8(r19)
  80352c:	20c0012e 	bgeu	r4,r3,803534 <_malloc_r+0x48c>
  803530:	10c00015 	stw	r3,0(r2)
  803534:	80c00117 	ldw	r3,4(r16)
  803538:	00bfff04 	movi	r2,-4
  80353c:	1886703a 	and	r3,r3,r2
  803540:	1c45c83a 	sub	r2,r3,r17
  803544:	1c400236 	bltu	r3,r17,803550 <_malloc_r+0x4a8>
  803548:	00c003c4 	movi	r3,15
  80354c:	18800416 	blt	r3,r2,803560 <_malloc_r+0x4b8>
  803550:	9009883a 	mov	r4,r18
  803554:	081021c0 	call	81021c <__malloc_unlock>
  803558:	0005883a 	mov	r2,zero
  80355c:	003f7b06 	br	80334c <__alt_mem_onchip_mem+0xff78334c>
  803560:	88c00054 	ori	r3,r17,1
  803564:	80c00115 	stw	r3,4(r16)
  803568:	8463883a 	add	r17,r16,r17
  80356c:	10800054 	ori	r2,r2,1
  803570:	9c400215 	stw	r17,8(r19)
  803574:	88800115 	stw	r2,4(r17)
  803578:	9009883a 	mov	r4,r18
  80357c:	081021c0 	call	81021c <__malloc_unlock>
  803580:	80800204 	addi	r2,r16,8
  803584:	003f7106 	br	80334c <__alt_mem_onchip_mem+0xff78334c>
  803588:	00c00504 	movi	r3,20
  80358c:	18804a2e 	bgeu	r3,r2,8036b8 <_malloc_r+0x610>
  803590:	00c01504 	movi	r3,84
  803594:	18806e36 	bltu	r3,r2,803750 <_malloc_r+0x6a8>
  803598:	8804d33a 	srli	r2,r17,12
  80359c:	12001bc4 	addi	r8,r2,111
  8035a0:	11c01b84 	addi	r7,r2,110
  8035a4:	4209883a 	add	r4,r8,r8
  8035a8:	003edd06 	br	803120 <__alt_mem_onchip_mem+0xff783120>
  8035ac:	3804d27a 	srli	r2,r7,9
  8035b0:	00c00104 	movi	r3,4
  8035b4:	1880442e 	bgeu	r3,r2,8036c8 <_malloc_r+0x620>
  8035b8:	00c00504 	movi	r3,20
  8035bc:	18808136 	bltu	r3,r2,8037c4 <_malloc_r+0x71c>
  8035c0:	11401704 	addi	r5,r2,92
  8035c4:	10c016c4 	addi	r3,r2,91
  8035c8:	294b883a 	add	r5,r5,r5
  8035cc:	294b883a 	add	r5,r5,r5
  8035d0:	294b883a 	add	r5,r5,r5
  8035d4:	994b883a 	add	r5,r19,r5
  8035d8:	28800017 	ldw	r2,0(r5)
  8035dc:	01802074 	movhi	r6,129
  8035e0:	297ffe04 	addi	r5,r5,-8
  8035e4:	3191fd04 	addi	r6,r6,18420
  8035e8:	28806526 	beq	r5,r2,803780 <_malloc_r+0x6d8>
  8035ec:	01bfff04 	movi	r6,-4
  8035f0:	10c00117 	ldw	r3,4(r2)
  8035f4:	1986703a 	and	r3,r3,r6
  8035f8:	38c0022e 	bgeu	r7,r3,803604 <_malloc_r+0x55c>
  8035fc:	10800217 	ldw	r2,8(r2)
  803600:	28bffb1e 	bne	r5,r2,8035f0 <__alt_mem_onchip_mem+0xff7835f0>
  803604:	11400317 	ldw	r5,12(r2)
  803608:	98c00117 	ldw	r3,4(r19)
  80360c:	81400315 	stw	r5,12(r16)
  803610:	80800215 	stw	r2,8(r16)
  803614:	2c000215 	stw	r16,8(r5)
  803618:	14000315 	stw	r16,12(r2)
  80361c:	003ef806 	br	803200 <__alt_mem_onchip_mem+0xff783200>
  803620:	88c00054 	ori	r3,r17,1
  803624:	80c00115 	stw	r3,4(r16)
  803628:	8463883a 	add	r17,r16,r17
  80362c:	34400515 	stw	r17,20(r6)
  803630:	34400415 	stw	r17,16(r6)
  803634:	10c00054 	ori	r3,r2,1
  803638:	8a000315 	stw	r8,12(r17)
  80363c:	8a000215 	stw	r8,8(r17)
  803640:	88c00115 	stw	r3,4(r17)
  803644:	88a3883a 	add	r17,r17,r2
  803648:	88800015 	stw	r2,0(r17)
  80364c:	9009883a 	mov	r4,r18
  803650:	081021c0 	call	81021c <__malloc_unlock>
  803654:	80800204 	addi	r2,r16,8
  803658:	003f3c06 	br	80334c <__alt_mem_onchip_mem+0xff78334c>
  80365c:	30c00117 	ldw	r3,4(r6)
  803660:	003ee706 	br	803200 <__alt_mem_onchip_mem+0xff783200>
  803664:	5ac00044 	addi	r11,r11,1
  803668:	588000cc 	andi	r2,r11,3
  80366c:	31800204 	addi	r6,r6,8
  803670:	103efd1e 	bne	r2,zero,803268 <__alt_mem_onchip_mem+0xff783268>
  803674:	00002406 	br	803708 <_malloc_r+0x660>
  803678:	14000317 	ldw	r16,12(r2)
  80367c:	143f251e 	bne	r2,r16,803314 <__alt_mem_onchip_mem+0xff783314>
  803680:	21000084 	addi	r4,r4,2
  803684:	003ebc06 	br	803178 <__alt_mem_onchip_mem+0xff783178>
  803688:	8085883a 	add	r2,r16,r2
  80368c:	10c00117 	ldw	r3,4(r2)
  803690:	81000317 	ldw	r4,12(r16)
  803694:	81400217 	ldw	r5,8(r16)
  803698:	18c00054 	ori	r3,r3,1
  80369c:	10c00115 	stw	r3,4(r2)
  8036a0:	29000315 	stw	r4,12(r5)
  8036a4:	21400215 	stw	r5,8(r4)
  8036a8:	9009883a 	mov	r4,r18
  8036ac:	081021c0 	call	81021c <__malloc_unlock>
  8036b0:	80800204 	addi	r2,r16,8
  8036b4:	003f2506 	br	80334c <__alt_mem_onchip_mem+0xff78334c>
  8036b8:	12001704 	addi	r8,r2,92
  8036bc:	11c016c4 	addi	r7,r2,91
  8036c0:	4209883a 	add	r4,r8,r8
  8036c4:	003e9606 	br	803120 <__alt_mem_onchip_mem+0xff783120>
  8036c8:	3804d1ba 	srli	r2,r7,6
  8036cc:	11400e44 	addi	r5,r2,57
  8036d0:	10c00e04 	addi	r3,r2,56
  8036d4:	294b883a 	add	r5,r5,r5
  8036d8:	003fbc06 	br	8035cc <__alt_mem_onchip_mem+0xff7835cc>
  8036dc:	84ff5926 	beq	r16,r19,803444 <__alt_mem_onchip_mem+0xff783444>
  8036e0:	00802074 	movhi	r2,129
  8036e4:	1091fd04 	addi	r2,r2,18420
  8036e8:	14000217 	ldw	r16,8(r2)
  8036ec:	00bfff04 	movi	r2,-4
  8036f0:	80c00117 	ldw	r3,4(r16)
  8036f4:	1886703a 	and	r3,r3,r2
  8036f8:	003f9106 	br	803540 <__alt_mem_onchip_mem+0xff783540>
  8036fc:	60800217 	ldw	r2,8(r12)
  803700:	213fffc4 	addi	r4,r4,-1
  803704:	1300651e 	bne	r2,r12,80389c <_malloc_r+0x7f4>
  803708:	208000cc 	andi	r2,r4,3
  80370c:	633ffe04 	addi	r12,r12,-8
  803710:	103ffa1e 	bne	r2,zero,8036fc <__alt_mem_onchip_mem+0xff7836fc>
  803714:	98800117 	ldw	r2,4(r19)
  803718:	0146303a 	nor	r3,zero,r5
  80371c:	1884703a 	and	r2,r3,r2
  803720:	98800115 	stw	r2,4(r19)
  803724:	294b883a 	add	r5,r5,r5
  803728:	117f2836 	bltu	r2,r5,8033cc <__alt_mem_onchip_mem+0xff7833cc>
  80372c:	283f2726 	beq	r5,zero,8033cc <__alt_mem_onchip_mem+0xff7833cc>
  803730:	2886703a 	and	r3,r5,r2
  803734:	5809883a 	mov	r4,r11
  803738:	183ec31e 	bne	r3,zero,803248 <__alt_mem_onchip_mem+0xff783248>
  80373c:	294b883a 	add	r5,r5,r5
  803740:	2886703a 	and	r3,r5,r2
  803744:	21000104 	addi	r4,r4,4
  803748:	183ffc26 	beq	r3,zero,80373c <__alt_mem_onchip_mem+0xff78373c>
  80374c:	003ebe06 	br	803248 <__alt_mem_onchip_mem+0xff783248>
  803750:	00c05504 	movi	r3,340
  803754:	18801236 	bltu	r3,r2,8037a0 <_malloc_r+0x6f8>
  803758:	8804d3fa 	srli	r2,r17,15
  80375c:	12001e04 	addi	r8,r2,120
  803760:	11c01dc4 	addi	r7,r2,119
  803764:	4209883a 	add	r4,r8,r8
  803768:	003e6d06 	br	803120 <__alt_mem_onchip_mem+0xff783120>
  80376c:	00c40004 	movi	r3,4096
  803770:	003f4606 	br	80348c <__alt_mem_onchip_mem+0xff78348c>
  803774:	00800044 	movi	r2,1
  803778:	a0800115 	stw	r2,4(r20)
  80377c:	003f7406 	br	803550 <__alt_mem_onchip_mem+0xff783550>
  803780:	1805d0ba 	srai	r2,r3,2
  803784:	01c00044 	movi	r7,1
  803788:	30c00117 	ldw	r3,4(r6)
  80378c:	388e983a 	sll	r7,r7,r2
  803790:	2805883a 	mov	r2,r5
  803794:	38c6b03a 	or	r3,r7,r3
  803798:	30c00115 	stw	r3,4(r6)
  80379c:	003f9b06 	br	80360c <__alt_mem_onchip_mem+0xff78360c>
  8037a0:	00c15504 	movi	r3,1364
  8037a4:	18801a36 	bltu	r3,r2,803810 <_malloc_r+0x768>
  8037a8:	8804d4ba 	srli	r2,r17,18
  8037ac:	12001f44 	addi	r8,r2,125
  8037b0:	11c01f04 	addi	r7,r2,124
  8037b4:	4209883a 	add	r4,r8,r8
  8037b8:	003e5906 	br	803120 <__alt_mem_onchip_mem+0xff783120>
  8037bc:	ad400404 	addi	r21,r21,16
  8037c0:	003f1706 	br	803420 <__alt_mem_onchip_mem+0xff783420>
  8037c4:	00c01504 	movi	r3,84
  8037c8:	18802336 	bltu	r3,r2,803858 <_malloc_r+0x7b0>
  8037cc:	3804d33a 	srli	r2,r7,12
  8037d0:	11401bc4 	addi	r5,r2,111
  8037d4:	10c01b84 	addi	r3,r2,110
  8037d8:	294b883a 	add	r5,r5,r5
  8037dc:	003f7b06 	br	8035cc <__alt_mem_onchip_mem+0xff7835cc>
  8037e0:	9c000217 	ldw	r16,8(r19)
  8037e4:	00bfff04 	movi	r2,-4
  8037e8:	80c00117 	ldw	r3,4(r16)
  8037ec:	1886703a 	and	r3,r3,r2
  8037f0:	003f5306 	br	803540 <__alt_mem_onchip_mem+0xff783540>
  8037f4:	3083ffcc 	andi	r2,r6,4095
  8037f8:	103f181e 	bne	r2,zero,80345c <__alt_mem_onchip_mem+0xff78345c>
  8037fc:	99000217 	ldw	r4,8(r19)
  803800:	b545883a 	add	r2,r22,r21
  803804:	10800054 	ori	r2,r2,1
  803808:	20800115 	stw	r2,4(r4)
  80380c:	003f3e06 	br	803508 <__alt_mem_onchip_mem+0xff783508>
  803810:	01003f84 	movi	r4,254
  803814:	02001fc4 	movi	r8,127
  803818:	01c01f84 	movi	r7,126
  80381c:	003e4006 	br	803120 <__alt_mem_onchip_mem+0xff783120>
  803820:	00802074 	movhi	r2,129
  803824:	10982304 	addi	r2,r2,24716
  803828:	15000015 	stw	r20,0(r2)
  80382c:	003f1106 	br	803474 <__alt_mem_onchip_mem+0xff783474>
  803830:	00800044 	movi	r2,1
  803834:	002b883a 	mov	r21,zero
  803838:	003f1f06 	br	8034b8 <__alt_mem_onchip_mem+0xff7834b8>
  80383c:	81400204 	addi	r5,r16,8
  803840:	9009883a 	mov	r4,r18
  803844:	080877c0 	call	80877c <_free_r>
  803848:	00802074 	movhi	r2,129
  80384c:	109f9104 	addi	r2,r2,32324
  803850:	10c00017 	ldw	r3,0(r2)
  803854:	003f2c06 	br	803508 <__alt_mem_onchip_mem+0xff783508>
  803858:	00c05504 	movi	r3,340
  80385c:	18800536 	bltu	r3,r2,803874 <_malloc_r+0x7cc>
  803860:	3804d3fa 	srli	r2,r7,15
  803864:	11401e04 	addi	r5,r2,120
  803868:	10c01dc4 	addi	r3,r2,119
  80386c:	294b883a 	add	r5,r5,r5
  803870:	003f5606 	br	8035cc <__alt_mem_onchip_mem+0xff7835cc>
  803874:	00c15504 	movi	r3,1364
  803878:	18800536 	bltu	r3,r2,803890 <_malloc_r+0x7e8>
  80387c:	3804d4ba 	srli	r2,r7,18
  803880:	11401f44 	addi	r5,r2,125
  803884:	10c01f04 	addi	r3,r2,124
  803888:	294b883a 	add	r5,r5,r5
  80388c:	003f4f06 	br	8035cc <__alt_mem_onchip_mem+0xff7835cc>
  803890:	01403f84 	movi	r5,254
  803894:	00c01f84 	movi	r3,126
  803898:	003f4c06 	br	8035cc <__alt_mem_onchip_mem+0xff7835cc>
  80389c:	98800117 	ldw	r2,4(r19)
  8038a0:	003fa006 	br	803724 <__alt_mem_onchip_mem+0xff783724>
  8038a4:	8808d0fa 	srli	r4,r17,3
  8038a8:	20800044 	addi	r2,r4,1
  8038ac:	1085883a 	add	r2,r2,r2
  8038b0:	003e9006 	br	8032f4 <__alt_mem_onchip_mem+0xff7832f4>

008038b4 <memset>:
  8038b4:	20c000cc 	andi	r3,r4,3
  8038b8:	2005883a 	mov	r2,r4
  8038bc:	18004426 	beq	r3,zero,8039d0 <memset+0x11c>
  8038c0:	31ffffc4 	addi	r7,r6,-1
  8038c4:	30004026 	beq	r6,zero,8039c8 <memset+0x114>
  8038c8:	2813883a 	mov	r9,r5
  8038cc:	200d883a 	mov	r6,r4
  8038d0:	2007883a 	mov	r3,r4
  8038d4:	00000406 	br	8038e8 <memset+0x34>
  8038d8:	3a3fffc4 	addi	r8,r7,-1
  8038dc:	31800044 	addi	r6,r6,1
  8038e0:	38003926 	beq	r7,zero,8039c8 <memset+0x114>
  8038e4:	400f883a 	mov	r7,r8
  8038e8:	18c00044 	addi	r3,r3,1
  8038ec:	32400005 	stb	r9,0(r6)
  8038f0:	1a0000cc 	andi	r8,r3,3
  8038f4:	403ff81e 	bne	r8,zero,8038d8 <__alt_mem_onchip_mem+0xff7838d8>
  8038f8:	010000c4 	movi	r4,3
  8038fc:	21c02d2e 	bgeu	r4,r7,8039b4 <memset+0x100>
  803900:	29003fcc 	andi	r4,r5,255
  803904:	200c923a 	slli	r6,r4,8
  803908:	3108b03a 	or	r4,r6,r4
  80390c:	200c943a 	slli	r6,r4,16
  803910:	218cb03a 	or	r6,r4,r6
  803914:	010003c4 	movi	r4,15
  803918:	21c0182e 	bgeu	r4,r7,80397c <memset+0xc8>
  80391c:	3b3ffc04 	addi	r12,r7,-16
  803920:	6018d13a 	srli	r12,r12,4
  803924:	1a000104 	addi	r8,r3,4
  803928:	1ac00204 	addi	r11,r3,8
  80392c:	6008913a 	slli	r4,r12,4
  803930:	1a800304 	addi	r10,r3,12
  803934:	1813883a 	mov	r9,r3
  803938:	21000504 	addi	r4,r4,20
  80393c:	1909883a 	add	r4,r3,r4
  803940:	49800015 	stw	r6,0(r9)
  803944:	41800015 	stw	r6,0(r8)
  803948:	59800015 	stw	r6,0(r11)
  80394c:	51800015 	stw	r6,0(r10)
  803950:	42000404 	addi	r8,r8,16
  803954:	4a400404 	addi	r9,r9,16
  803958:	5ac00404 	addi	r11,r11,16
  80395c:	52800404 	addi	r10,r10,16
  803960:	413ff71e 	bne	r8,r4,803940 <__alt_mem_onchip_mem+0xff783940>
  803964:	63000044 	addi	r12,r12,1
  803968:	6018913a 	slli	r12,r12,4
  80396c:	39c003cc 	andi	r7,r7,15
  803970:	010000c4 	movi	r4,3
  803974:	1b07883a 	add	r3,r3,r12
  803978:	21c00e2e 	bgeu	r4,r7,8039b4 <memset+0x100>
  80397c:	1813883a 	mov	r9,r3
  803980:	3811883a 	mov	r8,r7
  803984:	010000c4 	movi	r4,3
  803988:	49800015 	stw	r6,0(r9)
  80398c:	423fff04 	addi	r8,r8,-4
  803990:	4a400104 	addi	r9,r9,4
  803994:	223ffc36 	bltu	r4,r8,803988 <__alt_mem_onchip_mem+0xff783988>
  803998:	393fff04 	addi	r4,r7,-4
  80399c:	2008d0ba 	srli	r4,r4,2
  8039a0:	39c000cc 	andi	r7,r7,3
  8039a4:	21000044 	addi	r4,r4,1
  8039a8:	2109883a 	add	r4,r4,r4
  8039ac:	2109883a 	add	r4,r4,r4
  8039b0:	1907883a 	add	r3,r3,r4
  8039b4:	38000526 	beq	r7,zero,8039cc <memset+0x118>
  8039b8:	19cf883a 	add	r7,r3,r7
  8039bc:	19400005 	stb	r5,0(r3)
  8039c0:	18c00044 	addi	r3,r3,1
  8039c4:	38fffd1e 	bne	r7,r3,8039bc <__alt_mem_onchip_mem+0xff7839bc>
  8039c8:	f800283a 	ret
  8039cc:	f800283a 	ret
  8039d0:	2007883a 	mov	r3,r4
  8039d4:	300f883a 	mov	r7,r6
  8039d8:	003fc706 	br	8038f8 <__alt_mem_onchip_mem+0xff7838f8>

008039dc <_open_r>:
  8039dc:	defffd04 	addi	sp,sp,-12
  8039e0:	2805883a 	mov	r2,r5
  8039e4:	dc000015 	stw	r16,0(sp)
  8039e8:	04002074 	movhi	r16,129
  8039ec:	dc400115 	stw	r17,4(sp)
  8039f0:	300b883a 	mov	r5,r6
  8039f4:	841f8304 	addi	r16,r16,32268
  8039f8:	2023883a 	mov	r17,r4
  8039fc:	380d883a 	mov	r6,r7
  803a00:	1009883a 	mov	r4,r2
  803a04:	dfc00215 	stw	ra,8(sp)
  803a08:	80000015 	stw	zero,0(r16)
  803a0c:	08103400 	call	810340 <open>
  803a10:	00ffffc4 	movi	r3,-1
  803a14:	10c00526 	beq	r2,r3,803a2c <_open_r+0x50>
  803a18:	dfc00217 	ldw	ra,8(sp)
  803a1c:	dc400117 	ldw	r17,4(sp)
  803a20:	dc000017 	ldw	r16,0(sp)
  803a24:	dec00304 	addi	sp,sp,12
  803a28:	f800283a 	ret
  803a2c:	80c00017 	ldw	r3,0(r16)
  803a30:	183ff926 	beq	r3,zero,803a18 <__alt_mem_onchip_mem+0xff783a18>
  803a34:	88c00015 	stw	r3,0(r17)
  803a38:	003ff706 	br	803a18 <__alt_mem_onchip_mem+0xff783a18>

00803a3c <_printf_r>:
  803a3c:	defffd04 	addi	sp,sp,-12
  803a40:	2805883a 	mov	r2,r5
  803a44:	dfc00015 	stw	ra,0(sp)
  803a48:	d9800115 	stw	r6,4(sp)
  803a4c:	d9c00215 	stw	r7,8(sp)
  803a50:	21400217 	ldw	r5,8(r4)
  803a54:	d9c00104 	addi	r7,sp,4
  803a58:	100d883a 	mov	r6,r2
  803a5c:	08043480 	call	804348 <___vfprintf_internal_r>
  803a60:	dfc00017 	ldw	ra,0(sp)
  803a64:	dec00304 	addi	sp,sp,12
  803a68:	f800283a 	ret

00803a6c <printf>:
  803a6c:	defffc04 	addi	sp,sp,-16
  803a70:	dfc00015 	stw	ra,0(sp)
  803a74:	d9400115 	stw	r5,4(sp)
  803a78:	d9800215 	stw	r6,8(sp)
  803a7c:	d9c00315 	stw	r7,12(sp)
  803a80:	00802074 	movhi	r2,129
  803a84:	10982204 	addi	r2,r2,24712
  803a88:	10800017 	ldw	r2,0(r2)
  803a8c:	200b883a 	mov	r5,r4
  803a90:	d9800104 	addi	r6,sp,4
  803a94:	11000217 	ldw	r4,8(r2)
  803a98:	08065400 	call	806540 <__vfprintf_internal>
  803a9c:	dfc00017 	ldw	ra,0(sp)
  803aa0:	dec00404 	addi	sp,sp,16
  803aa4:	f800283a 	ret

00803aa8 <_putc_r>:
  803aa8:	defffc04 	addi	sp,sp,-16
  803aac:	dc000215 	stw	r16,8(sp)
  803ab0:	dfc00315 	stw	ra,12(sp)
  803ab4:	2021883a 	mov	r16,r4
  803ab8:	20000226 	beq	r4,zero,803ac4 <_putc_r+0x1c>
  803abc:	20800e17 	ldw	r2,56(r4)
  803ac0:	10001b26 	beq	r2,zero,803b30 <_putc_r+0x88>
  803ac4:	30800217 	ldw	r2,8(r6)
  803ac8:	10bfffc4 	addi	r2,r2,-1
  803acc:	30800215 	stw	r2,8(r6)
  803ad0:	10000a16 	blt	r2,zero,803afc <_putc_r+0x54>
  803ad4:	30800017 	ldw	r2,0(r6)
  803ad8:	11400005 	stb	r5,0(r2)
  803adc:	30800017 	ldw	r2,0(r6)
  803ae0:	10c00044 	addi	r3,r2,1
  803ae4:	30c00015 	stw	r3,0(r6)
  803ae8:	10800003 	ldbu	r2,0(r2)
  803aec:	dfc00317 	ldw	ra,12(sp)
  803af0:	dc000217 	ldw	r16,8(sp)
  803af4:	dec00404 	addi	sp,sp,16
  803af8:	f800283a 	ret
  803afc:	30c00617 	ldw	r3,24(r6)
  803b00:	10c00616 	blt	r2,r3,803b1c <_putc_r+0x74>
  803b04:	30800017 	ldw	r2,0(r6)
  803b08:	00c00284 	movi	r3,10
  803b0c:	11400005 	stb	r5,0(r2)
  803b10:	30800017 	ldw	r2,0(r6)
  803b14:	11400003 	ldbu	r5,0(r2)
  803b18:	28fff11e 	bne	r5,r3,803ae0 <__alt_mem_onchip_mem+0xff783ae0>
  803b1c:	8009883a 	mov	r4,r16
  803b20:	dfc00317 	ldw	ra,12(sp)
  803b24:	dc000217 	ldw	r16,8(sp)
  803b28:	dec00404 	addi	sp,sp,16
  803b2c:	08066181 	jmpi	806618 <__swbuf_r>
  803b30:	d9400015 	stw	r5,0(sp)
  803b34:	d9800115 	stw	r6,4(sp)
  803b38:	08025180 	call	802518 <__sinit>
  803b3c:	d9800117 	ldw	r6,4(sp)
  803b40:	d9400017 	ldw	r5,0(sp)
  803b44:	003fdf06 	br	803ac4 <__alt_mem_onchip_mem+0xff783ac4>

00803b48 <putc>:
  803b48:	00802074 	movhi	r2,129
  803b4c:	defffc04 	addi	sp,sp,-16
  803b50:	10982204 	addi	r2,r2,24712
  803b54:	dc000115 	stw	r16,4(sp)
  803b58:	14000017 	ldw	r16,0(r2)
  803b5c:	dc400215 	stw	r17,8(sp)
  803b60:	dfc00315 	stw	ra,12(sp)
  803b64:	2023883a 	mov	r17,r4
  803b68:	80000226 	beq	r16,zero,803b74 <putc+0x2c>
  803b6c:	80800e17 	ldw	r2,56(r16)
  803b70:	10001a26 	beq	r2,zero,803bdc <putc+0x94>
  803b74:	28800217 	ldw	r2,8(r5)
  803b78:	10bfffc4 	addi	r2,r2,-1
  803b7c:	28800215 	stw	r2,8(r5)
  803b80:	10000b16 	blt	r2,zero,803bb0 <putc+0x68>
  803b84:	28800017 	ldw	r2,0(r5)
  803b88:	14400005 	stb	r17,0(r2)
  803b8c:	28800017 	ldw	r2,0(r5)
  803b90:	10c00044 	addi	r3,r2,1
  803b94:	28c00015 	stw	r3,0(r5)
  803b98:	10800003 	ldbu	r2,0(r2)
  803b9c:	dfc00317 	ldw	ra,12(sp)
  803ba0:	dc400217 	ldw	r17,8(sp)
  803ba4:	dc000117 	ldw	r16,4(sp)
  803ba8:	dec00404 	addi	sp,sp,16
  803bac:	f800283a 	ret
  803bb0:	28c00617 	ldw	r3,24(r5)
  803bb4:	10c00e16 	blt	r2,r3,803bf0 <putc+0xa8>
  803bb8:	28800017 	ldw	r2,0(r5)
  803bbc:	01000284 	movi	r4,10
  803bc0:	14400005 	stb	r17,0(r2)
  803bc4:	28800017 	ldw	r2,0(r5)
  803bc8:	10c00003 	ldbu	r3,0(r2)
  803bcc:	193ff01e 	bne	r3,r4,803b90 <__alt_mem_onchip_mem+0xff783b90>
  803bd0:	280d883a 	mov	r6,r5
  803bd4:	180b883a 	mov	r5,r3
  803bd8:	00000706 	br	803bf8 <putc+0xb0>
  803bdc:	8009883a 	mov	r4,r16
  803be0:	d9400015 	stw	r5,0(sp)
  803be4:	08025180 	call	802518 <__sinit>
  803be8:	d9400017 	ldw	r5,0(sp)
  803bec:	003fe106 	br	803b74 <__alt_mem_onchip_mem+0xff783b74>
  803bf0:	280d883a 	mov	r6,r5
  803bf4:	880b883a 	mov	r5,r17
  803bf8:	8009883a 	mov	r4,r16
  803bfc:	dfc00317 	ldw	ra,12(sp)
  803c00:	dc400217 	ldw	r17,8(sp)
  803c04:	dc000117 	ldw	r16,4(sp)
  803c08:	dec00404 	addi	sp,sp,16
  803c0c:	08066181 	jmpi	806618 <__swbuf_r>

00803c10 <_putchar_r>:
  803c10:	21800217 	ldw	r6,8(r4)
  803c14:	0803aa81 	jmpi	803aa8 <_putc_r>

00803c18 <putchar>:
  803c18:	00802074 	movhi	r2,129
  803c1c:	10982204 	addi	r2,r2,24712
  803c20:	200b883a 	mov	r5,r4
  803c24:	11000017 	ldw	r4,0(r2)
  803c28:	21800217 	ldw	r6,8(r4)
  803c2c:	0803aa81 	jmpi	803aa8 <_putc_r>

00803c30 <lflush>:
  803c30:	2080030b 	ldhu	r2,12(r4)
  803c34:	00c00244 	movi	r3,9
  803c38:	1080024c 	andi	r2,r2,9
  803c3c:	10c00226 	beq	r2,r3,803c48 <lflush+0x18>
  803c40:	0005883a 	mov	r2,zero
  803c44:	f800283a 	ret
  803c48:	080857c1 	jmpi	80857c <fflush>

00803c4c <__srefill_r>:
  803c4c:	defffc04 	addi	sp,sp,-16
  803c50:	dc400115 	stw	r17,4(sp)
  803c54:	dc000015 	stw	r16,0(sp)
  803c58:	dfc00315 	stw	ra,12(sp)
  803c5c:	dc800215 	stw	r18,8(sp)
  803c60:	2023883a 	mov	r17,r4
  803c64:	2821883a 	mov	r16,r5
  803c68:	20000226 	beq	r4,zero,803c74 <__srefill_r+0x28>
  803c6c:	20800e17 	ldw	r2,56(r4)
  803c70:	10003c26 	beq	r2,zero,803d64 <__srefill_r+0x118>
  803c74:	80c0030b 	ldhu	r3,12(r16)
  803c78:	1908000c 	andi	r4,r3,8192
  803c7c:	1805883a 	mov	r2,r3
  803c80:	2000071e 	bne	r4,zero,803ca0 <__srefill_r+0x54>
  803c84:	81001917 	ldw	r4,100(r16)
  803c88:	18880014 	ori	r2,r3,8192
  803c8c:	00f7ffc4 	movi	r3,-8193
  803c90:	20c8703a 	and	r4,r4,r3
  803c94:	8080030d 	sth	r2,12(r16)
  803c98:	1007883a 	mov	r3,r2
  803c9c:	81001915 	stw	r4,100(r16)
  803ca0:	80000115 	stw	zero,4(r16)
  803ca4:	1100080c 	andi	r4,r2,32
  803ca8:	2000571e 	bne	r4,zero,803e08 <__srefill_r+0x1bc>
  803cac:	1100010c 	andi	r4,r2,4
  803cb0:	20001f26 	beq	r4,zero,803d30 <__srefill_r+0xe4>
  803cb4:	81400c17 	ldw	r5,48(r16)
  803cb8:	28000826 	beq	r5,zero,803cdc <__srefill_r+0x90>
  803cbc:	80801004 	addi	r2,r16,64
  803cc0:	28800226 	beq	r5,r2,803ccc <__srefill_r+0x80>
  803cc4:	8809883a 	mov	r4,r17
  803cc8:	080877c0 	call	80877c <_free_r>
  803ccc:	80800f17 	ldw	r2,60(r16)
  803cd0:	80000c15 	stw	zero,48(r16)
  803cd4:	80800115 	stw	r2,4(r16)
  803cd8:	1000391e 	bne	r2,zero,803dc0 <__srefill_r+0x174>
  803cdc:	80800417 	ldw	r2,16(r16)
  803ce0:	10004b26 	beq	r2,zero,803e10 <__srefill_r+0x1c4>
  803ce4:	8480030b 	ldhu	r18,12(r16)
  803ce8:	908000cc 	andi	r2,r18,3
  803cec:	10001f1e 	bne	r2,zero,803d6c <__srefill_r+0x120>
  803cf0:	81800417 	ldw	r6,16(r16)
  803cf4:	80800817 	ldw	r2,32(r16)
  803cf8:	81c00517 	ldw	r7,20(r16)
  803cfc:	81400717 	ldw	r5,28(r16)
  803d00:	81800015 	stw	r6,0(r16)
  803d04:	8809883a 	mov	r4,r17
  803d08:	103ee83a 	callr	r2
  803d0c:	80800115 	stw	r2,4(r16)
  803d10:	00800e0e 	bge	zero,r2,803d4c <__srefill_r+0x100>
  803d14:	0005883a 	mov	r2,zero
  803d18:	dfc00317 	ldw	ra,12(sp)
  803d1c:	dc800217 	ldw	r18,8(sp)
  803d20:	dc400117 	ldw	r17,4(sp)
  803d24:	dc000017 	ldw	r16,0(sp)
  803d28:	dec00404 	addi	sp,sp,16
  803d2c:	f800283a 	ret
  803d30:	1100040c 	andi	r4,r2,16
  803d34:	20003026 	beq	r4,zero,803df8 <__srefill_r+0x1ac>
  803d38:	1080020c 	andi	r2,r2,8
  803d3c:	1000241e 	bne	r2,zero,803dd0 <__srefill_r+0x184>
  803d40:	18c00114 	ori	r3,r3,4
  803d44:	80c0030d 	sth	r3,12(r16)
  803d48:	003fe406 	br	803cdc <__alt_mem_onchip_mem+0xff783cdc>
  803d4c:	80c0030b 	ldhu	r3,12(r16)
  803d50:	1000161e 	bne	r2,zero,803dac <__srefill_r+0x160>
  803d54:	18c00814 	ori	r3,r3,32
  803d58:	00bfffc4 	movi	r2,-1
  803d5c:	80c0030d 	sth	r3,12(r16)
  803d60:	003fed06 	br	803d18 <__alt_mem_onchip_mem+0xff783d18>
  803d64:	08025180 	call	802518 <__sinit>
  803d68:	003fc206 	br	803c74 <__alt_mem_onchip_mem+0xff783c74>
  803d6c:	00802074 	movhi	r2,129
  803d70:	10982104 	addi	r2,r2,24708
  803d74:	11000017 	ldw	r4,0(r2)
  803d78:	01402034 	movhi	r5,128
  803d7c:	00800044 	movi	r2,1
  803d80:	294f0c04 	addi	r5,r5,15408
  803d84:	8080030d 	sth	r2,12(r16)
  803d88:	0802c3c0 	call	802c3c <_fwalk>
  803d8c:	00800244 	movi	r2,9
  803d90:	8480030d 	sth	r18,12(r16)
  803d94:	9480024c 	andi	r18,r18,9
  803d98:	90bfd51e 	bne	r18,r2,803cf0 <__alt_mem_onchip_mem+0xff783cf0>
  803d9c:	800b883a 	mov	r5,r16
  803da0:	8809883a 	mov	r4,r17
  803da4:	08083040 	call	808304 <__sflush_r>
  803da8:	003fd106 	br	803cf0 <__alt_mem_onchip_mem+0xff783cf0>
  803dac:	18c01014 	ori	r3,r3,64
  803db0:	80000115 	stw	zero,4(r16)
  803db4:	00bfffc4 	movi	r2,-1
  803db8:	80c0030d 	sth	r3,12(r16)
  803dbc:	003fd606 	br	803d18 <__alt_mem_onchip_mem+0xff783d18>
  803dc0:	80c00e17 	ldw	r3,56(r16)
  803dc4:	0005883a 	mov	r2,zero
  803dc8:	80c00015 	stw	r3,0(r16)
  803dcc:	003fd206 	br	803d18 <__alt_mem_onchip_mem+0xff783d18>
  803dd0:	800b883a 	mov	r5,r16
  803dd4:	8809883a 	mov	r4,r17
  803dd8:	08085200 	call	808520 <_fflush_r>
  803ddc:	10000a1e 	bne	r2,zero,803e08 <__srefill_r+0x1bc>
  803de0:	8080030b 	ldhu	r2,12(r16)
  803de4:	00fffdc4 	movi	r3,-9
  803de8:	80000215 	stw	zero,8(r16)
  803dec:	1886703a 	and	r3,r3,r2
  803df0:	80000615 	stw	zero,24(r16)
  803df4:	003fd206 	br	803d40 <__alt_mem_onchip_mem+0xff783d40>
  803df8:	00800244 	movi	r2,9
  803dfc:	88800015 	stw	r2,0(r17)
  803e00:	18c01014 	ori	r3,r3,64
  803e04:	80c0030d 	sth	r3,12(r16)
  803e08:	00bfffc4 	movi	r2,-1
  803e0c:	003fc206 	br	803d18 <__alt_mem_onchip_mem+0xff783d18>
  803e10:	800b883a 	mov	r5,r16
  803e14:	8809883a 	mov	r4,r17
  803e18:	0802ec40 	call	802ec4 <__smakebuf_r>
  803e1c:	003fb106 	br	803ce4 <__alt_mem_onchip_mem+0xff783ce4>

00803e20 <__srget_r>:
  803e20:	defffd04 	addi	sp,sp,-12
  803e24:	dc400115 	stw	r17,4(sp)
  803e28:	dc000015 	stw	r16,0(sp)
  803e2c:	dfc00215 	stw	ra,8(sp)
  803e30:	2023883a 	mov	r17,r4
  803e34:	2821883a 	mov	r16,r5
  803e38:	20000226 	beq	r4,zero,803e44 <__srget_r+0x24>
  803e3c:	20800e17 	ldw	r2,56(r4)
  803e40:	10001026 	beq	r2,zero,803e84 <__srget_r+0x64>
  803e44:	800b883a 	mov	r5,r16
  803e48:	8809883a 	mov	r4,r17
  803e4c:	0803c4c0 	call	803c4c <__srefill_r>
  803e50:	10000e1e 	bne	r2,zero,803e8c <__srget_r+0x6c>
  803e54:	80c00017 	ldw	r3,0(r16)
  803e58:	80800117 	ldw	r2,4(r16)
  803e5c:	19000044 	addi	r4,r3,1
  803e60:	10bfffc4 	addi	r2,r2,-1
  803e64:	80800115 	stw	r2,4(r16)
  803e68:	81000015 	stw	r4,0(r16)
  803e6c:	18800003 	ldbu	r2,0(r3)
  803e70:	dfc00217 	ldw	ra,8(sp)
  803e74:	dc400117 	ldw	r17,4(sp)
  803e78:	dc000017 	ldw	r16,0(sp)
  803e7c:	dec00304 	addi	sp,sp,12
  803e80:	f800283a 	ret
  803e84:	08025180 	call	802518 <__sinit>
  803e88:	003fee06 	br	803e44 <__alt_mem_onchip_mem+0xff783e44>
  803e8c:	00bfffc4 	movi	r2,-1
  803e90:	003ff706 	br	803e70 <__alt_mem_onchip_mem+0xff783e70>

00803e94 <__srget>:
  803e94:	00802074 	movhi	r2,129
  803e98:	10982204 	addi	r2,r2,24712
  803e9c:	200b883a 	mov	r5,r4
  803ea0:	11000017 	ldw	r4,0(r2)
  803ea4:	0803e201 	jmpi	803e20 <__srget_r>

00803ea8 <_sbrk_r>:
  803ea8:	defffd04 	addi	sp,sp,-12
  803eac:	dc000015 	stw	r16,0(sp)
  803eb0:	04002074 	movhi	r16,129
  803eb4:	dc400115 	stw	r17,4(sp)
  803eb8:	841f8304 	addi	r16,r16,32268
  803ebc:	2023883a 	mov	r17,r4
  803ec0:	2809883a 	mov	r4,r5
  803ec4:	dfc00215 	stw	ra,8(sp)
  803ec8:	80000015 	stw	zero,0(r16)
  803ecc:	08106300 	call	810630 <sbrk>
  803ed0:	00ffffc4 	movi	r3,-1
  803ed4:	10c00526 	beq	r2,r3,803eec <_sbrk_r+0x44>
  803ed8:	dfc00217 	ldw	ra,8(sp)
  803edc:	dc400117 	ldw	r17,4(sp)
  803ee0:	dc000017 	ldw	r16,0(sp)
  803ee4:	dec00304 	addi	sp,sp,12
  803ee8:	f800283a 	ret
  803eec:	80c00017 	ldw	r3,0(r16)
  803ef0:	183ff926 	beq	r3,zero,803ed8 <__alt_mem_onchip_mem+0xff783ed8>
  803ef4:	88c00015 	stw	r3,0(r17)
  803ef8:	003ff706 	br	803ed8 <__alt_mem_onchip_mem+0xff783ed8>

00803efc <__sread>:
  803efc:	defffe04 	addi	sp,sp,-8
  803f00:	dc000015 	stw	r16,0(sp)
  803f04:	2821883a 	mov	r16,r5
  803f08:	2940038f 	ldh	r5,14(r5)
  803f0c:	dfc00115 	stw	ra,4(sp)
  803f10:	080a45c0 	call	80a45c <_read_r>
  803f14:	10000716 	blt	r2,zero,803f34 <__sread+0x38>
  803f18:	80c01417 	ldw	r3,80(r16)
  803f1c:	1887883a 	add	r3,r3,r2
  803f20:	80c01415 	stw	r3,80(r16)
  803f24:	dfc00117 	ldw	ra,4(sp)
  803f28:	dc000017 	ldw	r16,0(sp)
  803f2c:	dec00204 	addi	sp,sp,8
  803f30:	f800283a 	ret
  803f34:	80c0030b 	ldhu	r3,12(r16)
  803f38:	18fbffcc 	andi	r3,r3,61439
  803f3c:	80c0030d 	sth	r3,12(r16)
  803f40:	dfc00117 	ldw	ra,4(sp)
  803f44:	dc000017 	ldw	r16,0(sp)
  803f48:	dec00204 	addi	sp,sp,8
  803f4c:	f800283a 	ret

00803f50 <__seofread>:
  803f50:	0005883a 	mov	r2,zero
  803f54:	f800283a 	ret

00803f58 <__swrite>:
  803f58:	2880030b 	ldhu	r2,12(r5)
  803f5c:	defffb04 	addi	sp,sp,-20
  803f60:	dcc00315 	stw	r19,12(sp)
  803f64:	dc800215 	stw	r18,8(sp)
  803f68:	dc400115 	stw	r17,4(sp)
  803f6c:	dc000015 	stw	r16,0(sp)
  803f70:	dfc00415 	stw	ra,16(sp)
  803f74:	10c0400c 	andi	r3,r2,256
  803f78:	2821883a 	mov	r16,r5
  803f7c:	2023883a 	mov	r17,r4
  803f80:	3025883a 	mov	r18,r6
  803f84:	3827883a 	mov	r19,r7
  803f88:	18000526 	beq	r3,zero,803fa0 <__swrite+0x48>
  803f8c:	2940038f 	ldh	r5,14(r5)
  803f90:	01c00084 	movi	r7,2
  803f94:	000d883a 	mov	r6,zero
  803f98:	08090780 	call	809078 <_lseek_r>
  803f9c:	8080030b 	ldhu	r2,12(r16)
  803fa0:	8140038f 	ldh	r5,14(r16)
  803fa4:	10bbffcc 	andi	r2,r2,61439
  803fa8:	980f883a 	mov	r7,r19
  803fac:	900d883a 	mov	r6,r18
  803fb0:	8809883a 	mov	r4,r17
  803fb4:	8080030d 	sth	r2,12(r16)
  803fb8:	dfc00417 	ldw	ra,16(sp)
  803fbc:	dcc00317 	ldw	r19,12(sp)
  803fc0:	dc800217 	ldw	r18,8(sp)
  803fc4:	dc400117 	ldw	r17,4(sp)
  803fc8:	dc000017 	ldw	r16,0(sp)
  803fcc:	dec00504 	addi	sp,sp,20
  803fd0:	08067701 	jmpi	806770 <_write_r>

00803fd4 <__sseek>:
  803fd4:	defffe04 	addi	sp,sp,-8
  803fd8:	dc000015 	stw	r16,0(sp)
  803fdc:	2821883a 	mov	r16,r5
  803fe0:	2940038f 	ldh	r5,14(r5)
  803fe4:	dfc00115 	stw	ra,4(sp)
  803fe8:	08090780 	call	809078 <_lseek_r>
  803fec:	00ffffc4 	movi	r3,-1
  803ff0:	10c00826 	beq	r2,r3,804014 <__sseek+0x40>
  803ff4:	80c0030b 	ldhu	r3,12(r16)
  803ff8:	80801415 	stw	r2,80(r16)
  803ffc:	18c40014 	ori	r3,r3,4096
  804000:	80c0030d 	sth	r3,12(r16)
  804004:	dfc00117 	ldw	ra,4(sp)
  804008:	dc000017 	ldw	r16,0(sp)
  80400c:	dec00204 	addi	sp,sp,8
  804010:	f800283a 	ret
  804014:	80c0030b 	ldhu	r3,12(r16)
  804018:	18fbffcc 	andi	r3,r3,61439
  80401c:	80c0030d 	sth	r3,12(r16)
  804020:	dfc00117 	ldw	ra,4(sp)
  804024:	dc000017 	ldw	r16,0(sp)
  804028:	dec00204 	addi	sp,sp,8
  80402c:	f800283a 	ret

00804030 <__sclose>:
  804030:	2940038f 	ldh	r5,14(r5)
  804034:	08069241 	jmpi	806924 <_close_r>

00804038 <strtok>:
  804038:	00802074 	movhi	r2,129
  80403c:	10982204 	addi	r2,r2,24712
  804040:	11800017 	ldw	r6,0(r2)
  804044:	01c00044 	movi	r7,1
  804048:	31801704 	addi	r6,r6,92
  80404c:	08040501 	jmpi	804050 <__strtok_r>

00804050 <__strtok_r>:
  804050:	20001f26 	beq	r4,zero,8040d0 <__strtok_r+0x80>
  804054:	2005883a 	mov	r2,r4
  804058:	22400007 	ldb	r9,0(r4)
  80405c:	2807883a 	mov	r3,r5
  804060:	21000044 	addi	r4,r4,1
  804064:	00000106 	br	80406c <__strtok_r+0x1c>
  804068:	4a001226 	beq	r9,r8,8040b4 <__strtok_r+0x64>
  80406c:	1a000007 	ldb	r8,0(r3)
  804070:	18c00044 	addi	r3,r3,1
  804074:	403ffc1e 	bne	r8,zero,804068 <__alt_mem_onchip_mem+0xff784068>
  804078:	48001926 	beq	r9,zero,8040e0 <__strtok_r+0x90>
  80407c:	22000007 	ldb	r8,0(r4)
  804080:	2013883a 	mov	r9,r4
  804084:	21000044 	addi	r4,r4,1
  804088:	2015883a 	mov	r10,r4
  80408c:	2807883a 	mov	r3,r5
  804090:	00000106 	br	804098 <__strtok_r+0x48>
  804094:	383ff926 	beq	r7,zero,80407c <__alt_mem_onchip_mem+0xff78407c>
  804098:	19c00007 	ldb	r7,0(r3)
  80409c:	18c00044 	addi	r3,r3,1
  8040a0:	41fffc1e 	bne	r8,r7,804094 <__alt_mem_onchip_mem+0xff784094>
  8040a4:	40000726 	beq	r8,zero,8040c4 <__strtok_r+0x74>
  8040a8:	48000005 	stb	zero,0(r9)
  8040ac:	32800015 	stw	r10,0(r6)
  8040b0:	f800283a 	ret
  8040b4:	383fe71e 	bne	r7,zero,804054 <__alt_mem_onchip_mem+0xff784054>
  8040b8:	31000015 	stw	r4,0(r6)
  8040bc:	10000005 	stb	zero,0(r2)
  8040c0:	f800283a 	ret
  8040c4:	0015883a 	mov	r10,zero
  8040c8:	32800015 	stw	r10,0(r6)
  8040cc:	f800283a 	ret
  8040d0:	31000017 	ldw	r4,0(r6)
  8040d4:	203fdf1e 	bne	r4,zero,804054 <__alt_mem_onchip_mem+0xff784054>
  8040d8:	0005883a 	mov	r2,zero
  8040dc:	f800283a 	ret
  8040e0:	30000015 	stw	zero,0(r6)
  8040e4:	0005883a 	mov	r2,zero
  8040e8:	f800283a 	ret

008040ec <strtok_r>:
  8040ec:	01c00044 	movi	r7,1
  8040f0:	08040501 	jmpi	804050 <__strtok_r>

008040f4 <_strtol_r>:
  8040f4:	00802074 	movhi	r2,129
  8040f8:	defff404 	addi	sp,sp,-48
  8040fc:	10982504 	addi	r2,r2,24724
  804100:	dd400715 	stw	r21,28(sp)
  804104:	15400017 	ldw	r21,0(r2)
  804108:	dd800815 	stw	r22,32(sp)
  80410c:	dd000615 	stw	r20,24(sp)
  804110:	dcc00515 	stw	r19,20(sp)
  804114:	d9000015 	stw	r4,0(sp)
  804118:	dfc00b15 	stw	ra,44(sp)
  80411c:	df000a15 	stw	fp,40(sp)
  804120:	ddc00915 	stw	r23,36(sp)
  804124:	dc800415 	stw	r18,16(sp)
  804128:	dc400315 	stw	r17,12(sp)
  80412c:	dc000215 	stw	r16,8(sp)
  804130:	2829883a 	mov	r20,r5
  804134:	3027883a 	mov	r19,r6
  804138:	382d883a 	mov	r22,r7
  80413c:	2809883a 	mov	r4,r5
  804140:	24000003 	ldbu	r16,0(r4)
  804144:	24400044 	addi	r17,r4,1
  804148:	2007883a 	mov	r3,r4
  80414c:	ac05883a 	add	r2,r21,r16
  804150:	10800043 	ldbu	r2,1(r2)
  804154:	8809883a 	mov	r4,r17
  804158:	1080020c 	andi	r2,r2,8
  80415c:	103ff81e 	bne	r2,zero,804140 <__alt_mem_onchip_mem+0xff784140>
  804160:	00800b44 	movi	r2,45
  804164:	80805826 	beq	r16,r2,8042c8 <_strtol_r+0x1d4>
  804168:	00800ac4 	movi	r2,43
  80416c:	80805a26 	beq	r16,r2,8042d8 <_strtol_r+0x1e4>
  804170:	0039883a 	mov	fp,zero
  804174:	b0004426 	beq	r22,zero,804288 <_strtol_r+0x194>
  804178:	00800404 	movi	r2,16
  80417c:	b0806026 	beq	r22,r2,804300 <_strtol_r+0x20c>
  804180:	b02f883a 	mov	r23,r22
  804184:	00a00034 	movhi	r2,32768
  804188:	e025003a 	cmpeq	r18,fp,zero
  80418c:	14a5c83a 	sub	r18,r2,r18
  804190:	b80b883a 	mov	r5,r23
  804194:	9009883a 	mov	r4,r18
  804198:	080d3100 	call	80d310 <__umodsi3>
  80419c:	b80b883a 	mov	r5,r23
  8041a0:	9009883a 	mov	r4,r18
  8041a4:	d8800115 	stw	r2,4(sp)
  8041a8:	080d2ac0 	call	80d2ac <__udivsi3>
  8041ac:	ac07883a 	add	r3,r21,r16
  8041b0:	18c00043 	ldbu	r3,1(r3)
  8041b4:	880b883a 	mov	r5,r17
  8041b8:	000d883a 	mov	r6,zero
  8041bc:	1a00010c 	andi	r8,r3,4
  8041c0:	0009883a 	mov	r4,zero
  8041c4:	02800044 	movi	r10,1
  8041c8:	027fffc4 	movi	r9,-1
  8041cc:	d9c00117 	ldw	r7,4(sp)
  8041d0:	40000e26 	beq	r8,zero,80420c <_strtol_r+0x118>
  8041d4:	843ff404 	addi	r16,r16,-48
  8041d8:	8580120e 	bge	r16,r22,804224 <_strtol_r+0x130>
  8041dc:	32400526 	beq	r6,r9,8041f4 <_strtol_r+0x100>
  8041e0:	11002536 	bltu	r2,r4,804278 <_strtol_r+0x184>
  8041e4:	20802326 	beq	r4,r2,804274 <_strtol_r+0x180>
  8041e8:	25c9383a 	mul	r4,r4,r23
  8041ec:	01800044 	movi	r6,1
  8041f0:	8109883a 	add	r4,r16,r4
  8041f4:	2c000003 	ldbu	r16,0(r5)
  8041f8:	29400044 	addi	r5,r5,1
  8041fc:	ac07883a 	add	r3,r21,r16
  804200:	18c00043 	ldbu	r3,1(r3)
  804204:	1a00010c 	andi	r8,r3,4
  804208:	403ff21e 	bne	r8,zero,8041d4 <__alt_mem_onchip_mem+0xff7841d4>
  80420c:	18c000cc 	andi	r3,r3,3
  804210:	18000426 	beq	r3,zero,804224 <_strtol_r+0x130>
  804214:	1a801a26 	beq	r3,r10,804280 <_strtol_r+0x18c>
  804218:	00c015c4 	movi	r3,87
  80421c:	80e1c83a 	sub	r16,r16,r3
  804220:	85bfee16 	blt	r16,r22,8041dc <__alt_mem_onchip_mem+0xff7841dc>
  804224:	00bfffc4 	movi	r2,-1
  804228:	30801e26 	beq	r6,r2,8042a4 <_strtol_r+0x1b0>
  80422c:	e0001b1e 	bne	fp,zero,80429c <_strtol_r+0x1a8>
  804230:	2005883a 	mov	r2,r4
  804234:	98000326 	beq	r19,zero,804244 <_strtol_r+0x150>
  804238:	3000211e 	bne	r6,zero,8042c0 <_strtol_r+0x1cc>
  80423c:	a00b883a 	mov	r5,r20
  804240:	99400015 	stw	r5,0(r19)
  804244:	dfc00b17 	ldw	ra,44(sp)
  804248:	df000a17 	ldw	fp,40(sp)
  80424c:	ddc00917 	ldw	r23,36(sp)
  804250:	dd800817 	ldw	r22,32(sp)
  804254:	dd400717 	ldw	r21,28(sp)
  804258:	dd000617 	ldw	r20,24(sp)
  80425c:	dcc00517 	ldw	r19,20(sp)
  804260:	dc800417 	ldw	r18,16(sp)
  804264:	dc400317 	ldw	r17,12(sp)
  804268:	dc000217 	ldw	r16,8(sp)
  80426c:	dec00c04 	addi	sp,sp,48
  804270:	f800283a 	ret
  804274:	3c3fdc0e 	bge	r7,r16,8041e8 <__alt_mem_onchip_mem+0xff7841e8>
  804278:	01bfffc4 	movi	r6,-1
  80427c:	003fdd06 	br	8041f4 <__alt_mem_onchip_mem+0xff7841f4>
  804280:	00c00dc4 	movi	r3,55
  804284:	003fe506 	br	80421c <__alt_mem_onchip_mem+0xff78421c>
  804288:	00800c04 	movi	r2,48
  80428c:	80801626 	beq	r16,r2,8042e8 <_strtol_r+0x1f4>
  804290:	05800284 	movi	r22,10
  804294:	b02f883a 	mov	r23,r22
  804298:	003fba06 	br	804184 <__alt_mem_onchip_mem+0xff784184>
  80429c:	0109c83a 	sub	r4,zero,r4
  8042a0:	003fe306 	br	804230 <__alt_mem_onchip_mem+0xff784230>
  8042a4:	d9000017 	ldw	r4,0(sp)
  8042a8:	00c00884 	movi	r3,34
  8042ac:	e005003a 	cmpeq	r2,fp,zero
  8042b0:	20c00015 	stw	r3,0(r4)
  8042b4:	00e00034 	movhi	r3,32768
  8042b8:	1885c83a 	sub	r2,r3,r2
  8042bc:	983fe126 	beq	r19,zero,804244 <__alt_mem_onchip_mem+0xff784244>
  8042c0:	297fffc4 	addi	r5,r5,-1
  8042c4:	003fde06 	br	804240 <__alt_mem_onchip_mem+0xff784240>
  8042c8:	1c400084 	addi	r17,r3,2
  8042cc:	1c000043 	ldbu	r16,1(r3)
  8042d0:	07000044 	movi	fp,1
  8042d4:	003fa706 	br	804174 <__alt_mem_onchip_mem+0xff784174>
  8042d8:	1c400084 	addi	r17,r3,2
  8042dc:	1c000043 	ldbu	r16,1(r3)
  8042e0:	0039883a 	mov	fp,zero
  8042e4:	003fa306 	br	804174 <__alt_mem_onchip_mem+0xff784174>
  8042e8:	88800003 	ldbu	r2,0(r17)
  8042ec:	00c01604 	movi	r3,88
  8042f0:	108037cc 	andi	r2,r2,223
  8042f4:	10c00826 	beq	r2,r3,804318 <_strtol_r+0x224>
  8042f8:	05800204 	movi	r22,8
  8042fc:	003fa006 	br	804180 <__alt_mem_onchip_mem+0xff784180>
  804300:	00800c04 	movi	r2,48
  804304:	80bf9e1e 	bne	r16,r2,804180 <__alt_mem_onchip_mem+0xff784180>
  804308:	88800003 	ldbu	r2,0(r17)
  80430c:	00c01604 	movi	r3,88
  804310:	108037cc 	andi	r2,r2,223
  804314:	10ff9a1e 	bne	r2,r3,804180 <__alt_mem_onchip_mem+0xff784180>
  804318:	05c00404 	movi	r23,16
  80431c:	8c000043 	ldbu	r16,1(r17)
  804320:	b82d883a 	mov	r22,r23
  804324:	8c400084 	addi	r17,r17,2
  804328:	003f9606 	br	804184 <__alt_mem_onchip_mem+0xff784184>

0080432c <strtol>:
  80432c:	00802074 	movhi	r2,129
  804330:	10982204 	addi	r2,r2,24712
  804334:	300f883a 	mov	r7,r6
  804338:	280d883a 	mov	r6,r5
  80433c:	200b883a 	mov	r5,r4
  804340:	11000017 	ldw	r4,0(r2)
  804344:	08040f41 	jmpi	8040f4 <_strtol_r>

00804348 <___vfprintf_internal_r>:
  804348:	deffb804 	addi	sp,sp,-288
  80434c:	dfc04715 	stw	ra,284(sp)
  804350:	ddc04515 	stw	r23,276(sp)
  804354:	dd404315 	stw	r21,268(sp)
  804358:	d9002c15 	stw	r4,176(sp)
  80435c:	282f883a 	mov	r23,r5
  804360:	302b883a 	mov	r21,r6
  804364:	d9c02d15 	stw	r7,180(sp)
  804368:	df004615 	stw	fp,280(sp)
  80436c:	dd804415 	stw	r22,272(sp)
  804370:	dd004215 	stw	r20,264(sp)
  804374:	dcc04115 	stw	r19,260(sp)
  804378:	dc804015 	stw	r18,256(sp)
  80437c:	dc403f15 	stw	r17,252(sp)
  804380:	dc003e15 	stw	r16,248(sp)
  804384:	08090480 	call	809048 <_localeconv_r>
  804388:	10800017 	ldw	r2,0(r2)
  80438c:	1009883a 	mov	r4,r2
  804390:	d8803415 	stw	r2,208(sp)
  804394:	080ab700 	call	80ab70 <strlen>
  804398:	d8803715 	stw	r2,220(sp)
  80439c:	d8802c17 	ldw	r2,176(sp)
  8043a0:	10000226 	beq	r2,zero,8043ac <___vfprintf_internal_r+0x64>
  8043a4:	10800e17 	ldw	r2,56(r2)
  8043a8:	1000f926 	beq	r2,zero,804790 <___vfprintf_internal_r+0x448>
  8043ac:	b880030b 	ldhu	r2,12(r23)
  8043b0:	10c8000c 	andi	r3,r2,8192
  8043b4:	1800061e 	bne	r3,zero,8043d0 <___vfprintf_internal_r+0x88>
  8043b8:	b9001917 	ldw	r4,100(r23)
  8043bc:	00f7ffc4 	movi	r3,-8193
  8043c0:	10880014 	ori	r2,r2,8192
  8043c4:	20c6703a 	and	r3,r4,r3
  8043c8:	b880030d 	sth	r2,12(r23)
  8043cc:	b8c01915 	stw	r3,100(r23)
  8043d0:	10c0020c 	andi	r3,r2,8
  8043d4:	1800c126 	beq	r3,zero,8046dc <___vfprintf_internal_r+0x394>
  8043d8:	b8c00417 	ldw	r3,16(r23)
  8043dc:	1800bf26 	beq	r3,zero,8046dc <___vfprintf_internal_r+0x394>
  8043e0:	1080068c 	andi	r2,r2,26
  8043e4:	00c00284 	movi	r3,10
  8043e8:	10c0c426 	beq	r2,r3,8046fc <___vfprintf_internal_r+0x3b4>
  8043ec:	d8c00404 	addi	r3,sp,16
  8043f0:	05002074 	movhi	r20,129
  8043f4:	d9001e04 	addi	r4,sp,120
  8043f8:	a50fa284 	addi	r20,r20,16010
  8043fc:	d8c01e15 	stw	r3,120(sp)
  804400:	d8002015 	stw	zero,128(sp)
  804404:	d8001f15 	stw	zero,124(sp)
  804408:	d8003315 	stw	zero,204(sp)
  80440c:	d8003615 	stw	zero,216(sp)
  804410:	d8003815 	stw	zero,224(sp)
  804414:	1811883a 	mov	r8,r3
  804418:	d8003915 	stw	zero,228(sp)
  80441c:	d8003a15 	stw	zero,232(sp)
  804420:	d8002f15 	stw	zero,188(sp)
  804424:	d9002815 	stw	r4,160(sp)
  804428:	a8800007 	ldb	r2,0(r21)
  80442c:	10027b26 	beq	r2,zero,804e1c <___vfprintf_internal_r+0xad4>
  804430:	00c00944 	movi	r3,37
  804434:	a821883a 	mov	r16,r21
  804438:	10c0021e 	bne	r2,r3,804444 <___vfprintf_internal_r+0xfc>
  80443c:	00001406 	br	804490 <___vfprintf_internal_r+0x148>
  804440:	10c00326 	beq	r2,r3,804450 <___vfprintf_internal_r+0x108>
  804444:	84000044 	addi	r16,r16,1
  804448:	80800007 	ldb	r2,0(r16)
  80444c:	103ffc1e 	bne	r2,zero,804440 <__alt_mem_onchip_mem+0xff784440>
  804450:	8563c83a 	sub	r17,r16,r21
  804454:	88000e26 	beq	r17,zero,804490 <___vfprintf_internal_r+0x148>
  804458:	d8c02017 	ldw	r3,128(sp)
  80445c:	d8801f17 	ldw	r2,124(sp)
  804460:	45400015 	stw	r21,0(r8)
  804464:	1c47883a 	add	r3,r3,r17
  804468:	10800044 	addi	r2,r2,1
  80446c:	d8c02015 	stw	r3,128(sp)
  804470:	44400115 	stw	r17,4(r8)
  804474:	d8801f15 	stw	r2,124(sp)
  804478:	00c001c4 	movi	r3,7
  80447c:	1880a716 	blt	r3,r2,80471c <___vfprintf_internal_r+0x3d4>
  804480:	42000204 	addi	r8,r8,8
  804484:	d9402f17 	ldw	r5,188(sp)
  804488:	2c4b883a 	add	r5,r5,r17
  80448c:	d9402f15 	stw	r5,188(sp)
  804490:	80800007 	ldb	r2,0(r16)
  804494:	1000a826 	beq	r2,zero,804738 <___vfprintf_internal_r+0x3f0>
  804498:	84400047 	ldb	r17,1(r16)
  80449c:	00bfffc4 	movi	r2,-1
  8044a0:	85400044 	addi	r21,r16,1
  8044a4:	d8002785 	stb	zero,158(sp)
  8044a8:	0007883a 	mov	r3,zero
  8044ac:	000f883a 	mov	r7,zero
  8044b0:	d8802915 	stw	r2,164(sp)
  8044b4:	d8003115 	stw	zero,196(sp)
  8044b8:	0025883a 	mov	r18,zero
  8044bc:	01401604 	movi	r5,88
  8044c0:	01800244 	movi	r6,9
  8044c4:	02800a84 	movi	r10,42
  8044c8:	02401b04 	movi	r9,108
  8044cc:	ad400044 	addi	r21,r21,1
  8044d0:	88bff804 	addi	r2,r17,-32
  8044d4:	28830436 	bltu	r5,r2,8050e8 <___vfprintf_internal_r+0xda0>
  8044d8:	100490ba 	slli	r2,r2,2
  8044dc:	01002034 	movhi	r4,128
  8044e0:	21113c04 	addi	r4,r4,17648
  8044e4:	1105883a 	add	r2,r2,r4
  8044e8:	10800017 	ldw	r2,0(r2)
  8044ec:	1000683a 	jmp	r2
  8044f0:	00805008 	cmpgei	r2,zero,320
  8044f4:	008050e8 	cmpgeui	r2,zero,323
  8044f8:	008050e8 	cmpgeui	r2,zero,323
  8044fc:	00805028 	cmpgeui	r2,zero,320
  804500:	008050e8 	cmpgeui	r2,zero,323
  804504:	008050e8 	cmpgeui	r2,zero,323
  804508:	008050e8 	cmpgeui	r2,zero,323
  80450c:	008050e8 	cmpgeui	r2,zero,323
  804510:	008050e8 	cmpgeui	r2,zero,323
  804514:	008050e8 	cmpgeui	r2,zero,323
  804518:	0080479c 	xori	r2,zero,286
  80451c:	00804f44 	movi	r2,317
  804520:	008050e8 	cmpgeui	r2,zero,323
  804524:	00804664 	muli	r2,zero,281
  804528:	008047c4 	movi	r2,287
  80452c:	008050e8 	cmpgeui	r2,zero,323
  804530:	00804804 	movi	r2,288
  804534:	00804810 	cmplti	r2,zero,288
  804538:	00804810 	cmplti	r2,zero,288
  80453c:	00804810 	cmplti	r2,zero,288
  804540:	00804810 	cmplti	r2,zero,288
  804544:	00804810 	cmplti	r2,zero,288
  804548:	00804810 	cmplti	r2,zero,288
  80454c:	00804810 	cmplti	r2,zero,288
  804550:	00804810 	cmplti	r2,zero,288
  804554:	00804810 	cmplti	r2,zero,288
  804558:	008050e8 	cmpgeui	r2,zero,323
  80455c:	008050e8 	cmpgeui	r2,zero,323
  804560:	008050e8 	cmpgeui	r2,zero,323
  804564:	008050e8 	cmpgeui	r2,zero,323
  804568:	008050e8 	cmpgeui	r2,zero,323
  80456c:	008050e8 	cmpgeui	r2,zero,323
  804570:	008050e8 	cmpgeui	r2,zero,323
  804574:	008050e8 	cmpgeui	r2,zero,323
  804578:	008050e8 	cmpgeui	r2,zero,323
  80457c:	008050e8 	cmpgeui	r2,zero,323
  804580:	00804844 	movi	r2,289
  804584:	00804900 	call	80490 <__reset-0x77fb70>
  804588:	008050e8 	cmpgeui	r2,zero,323
  80458c:	00804900 	call	80490 <__reset-0x77fb70>
  804590:	008050e8 	cmpgeui	r2,zero,323
  804594:	008050e8 	cmpgeui	r2,zero,323
  804598:	008050e8 	cmpgeui	r2,zero,323
  80459c:	008050e8 	cmpgeui	r2,zero,323
  8045a0:	008049a0 	cmpeqi	r2,zero,294
  8045a4:	008050e8 	cmpgeui	r2,zero,323
  8045a8:	008050e8 	cmpgeui	r2,zero,323
  8045ac:	008049ac 	andhi	r2,zero,294
  8045b0:	008050e8 	cmpgeui	r2,zero,323
  8045b4:	008050e8 	cmpgeui	r2,zero,323
  8045b8:	008050e8 	cmpgeui	r2,zero,323
  8045bc:	008050e8 	cmpgeui	r2,zero,323
  8045c0:	008050e8 	cmpgeui	r2,zero,323
  8045c4:	00804e24 	muli	r2,zero,312
  8045c8:	008050e8 	cmpgeui	r2,zero,323
  8045cc:	008050e8 	cmpgeui	r2,zero,323
  8045d0:	00804e84 	movi	r2,314
  8045d4:	008050e8 	cmpgeui	r2,zero,323
  8045d8:	008050e8 	cmpgeui	r2,zero,323
  8045dc:	008050e8 	cmpgeui	r2,zero,323
  8045e0:	008050e8 	cmpgeui	r2,zero,323
  8045e4:	008050e8 	cmpgeui	r2,zero,323
  8045e8:	008050e8 	cmpgeui	r2,zero,323
  8045ec:	008050e8 	cmpgeui	r2,zero,323
  8045f0:	008050e8 	cmpgeui	r2,zero,323
  8045f4:	008050e8 	cmpgeui	r2,zero,323
  8045f8:	008050e8 	cmpgeui	r2,zero,323
  8045fc:	00805094 	movui	r2,322
  804600:	00805034 	movhi	r2,320
  804604:	00804900 	call	80490 <__reset-0x77fb70>
  804608:	00804900 	call	80490 <__reset-0x77fb70>
  80460c:	00804900 	call	80490 <__reset-0x77fb70>
  804610:	00805044 	movi	r2,321
  804614:	00805034 	movhi	r2,320
  804618:	008050e8 	cmpgeui	r2,zero,323
  80461c:	008050e8 	cmpgeui	r2,zero,323
  804620:	00805050 	cmplti	r2,zero,321
  804624:	008050e8 	cmpgeui	r2,zero,323
  804628:	00805060 	cmpeqi	r2,zero,321
  80462c:	00804f34 	movhi	r2,316
  804630:	00804670 	cmpltui	r2,zero,281
  804634:	00804f54 	movui	r2,317
  804638:	008050e8 	cmpgeui	r2,zero,323
  80463c:	00804f60 	cmpeqi	r2,zero,317
  804640:	008050e8 	cmpgeui	r2,zero,323
  804644:	00804fbc 	xorhi	r2,zero,318
  804648:	008050e8 	cmpgeui	r2,zero,323
  80464c:	008050e8 	cmpgeui	r2,zero,323
  804650:	00804fcc 	andi	r2,zero,319
  804654:	d9003117 	ldw	r4,196(sp)
  804658:	d8802d15 	stw	r2,180(sp)
  80465c:	0109c83a 	sub	r4,zero,r4
  804660:	d9003115 	stw	r4,196(sp)
  804664:	94800114 	ori	r18,r18,4
  804668:	ac400007 	ldb	r17,0(r21)
  80466c:	003f9706 	br	8044cc <__alt_mem_onchip_mem+0xff7844cc>
  804670:	00800c04 	movi	r2,48
  804674:	d9002d17 	ldw	r4,180(sp)
  804678:	d9402917 	ldw	r5,164(sp)
  80467c:	d8802705 	stb	r2,156(sp)
  804680:	00801e04 	movi	r2,120
  804684:	d8802745 	stb	r2,157(sp)
  804688:	d8002785 	stb	zero,158(sp)
  80468c:	20c00104 	addi	r3,r4,4
  804690:	24c00017 	ldw	r19,0(r4)
  804694:	002d883a 	mov	r22,zero
  804698:	90800094 	ori	r2,r18,2
  80469c:	28029a16 	blt	r5,zero,805108 <___vfprintf_internal_r+0xdc0>
  8046a0:	00bfdfc4 	movi	r2,-129
  8046a4:	90a4703a 	and	r18,r18,r2
  8046a8:	d8c02d15 	stw	r3,180(sp)
  8046ac:	94800094 	ori	r18,r18,2
  8046b0:	9802871e 	bne	r19,zero,8050d0 <___vfprintf_internal_r+0xd88>
  8046b4:	00802074 	movhi	r2,129
  8046b8:	108f9b04 	addi	r2,r2,15980
  8046bc:	d8803915 	stw	r2,228(sp)
  8046c0:	04401e04 	movi	r17,120
  8046c4:	d8802917 	ldw	r2,164(sp)
  8046c8:	0039883a 	mov	fp,zero
  8046cc:	1001e926 	beq	r2,zero,804e74 <___vfprintf_internal_r+0xb2c>
  8046d0:	0027883a 	mov	r19,zero
  8046d4:	002d883a 	mov	r22,zero
  8046d8:	00020506 	br	804ef0 <___vfprintf_internal_r+0xba8>
  8046dc:	d9002c17 	ldw	r4,176(sp)
  8046e0:	b80b883a 	mov	r5,r23
  8046e4:	08067d00 	call	8067d0 <__swsetup_r>
  8046e8:	1005ac1e 	bne	r2,zero,805d9c <___vfprintf_internal_r+0x1a54>
  8046ec:	b880030b 	ldhu	r2,12(r23)
  8046f0:	00c00284 	movi	r3,10
  8046f4:	1080068c 	andi	r2,r2,26
  8046f8:	10ff3c1e 	bne	r2,r3,8043ec <__alt_mem_onchip_mem+0xff7843ec>
  8046fc:	b880038f 	ldh	r2,14(r23)
  804700:	103f3a16 	blt	r2,zero,8043ec <__alt_mem_onchip_mem+0xff7843ec>
  804704:	d9c02d17 	ldw	r7,180(sp)
  804708:	d9002c17 	ldw	r4,176(sp)
  80470c:	a80d883a 	mov	r6,r21
  804710:	b80b883a 	mov	r5,r23
  804714:	080655c0 	call	80655c <__sbprintf>
  804718:	00001106 	br	804760 <___vfprintf_internal_r+0x418>
  80471c:	d9002c17 	ldw	r4,176(sp)
  804720:	d9801e04 	addi	r6,sp,120
  804724:	b80b883a 	mov	r5,r23
  804728:	080ad040 	call	80ad04 <__sprint_r>
  80472c:	1000081e 	bne	r2,zero,804750 <___vfprintf_internal_r+0x408>
  804730:	da000404 	addi	r8,sp,16
  804734:	003f5306 	br	804484 <__alt_mem_onchip_mem+0xff784484>
  804738:	d8802017 	ldw	r2,128(sp)
